	.file	"app.c"
	.text
	.p2align 4
	.type	stbi__refill_buffer, @function
stbi__refill_buffer:
.LFB598:
	.cfi_startproc
	pushq	%rbp
	.cfi_def_cfa_offset 16
	.cfi_offset 6, -16
	leaq	56(%rdi), %rbp
	pushq	%rbx
	.cfi_def_cfa_offset 24
	.cfi_offset 3, -24
	movq	%rdi, %rbx
	movq	%rbp, %rsi
	subq	$8, %rsp
	.cfi_def_cfa_offset 32
	movl	52(%rdi), %edx
	movq	40(%rdi), %rdi
	call	*16(%rbx)
	movq	192(%rbx), %rdx
	subq	208(%rbx), %rdx
	addl	%edx, 184(%rbx)
	testl	%eax, %eax
	jne	.L2
	movl	$0, 48(%rbx)
	leaq	57(%rbx), %rax
	movb	$0, 56(%rbx)
.L3:
	movq	%rax, 200(%rbx)
	movq	%rbp, 192(%rbx)
	addq	$8, %rsp
	.cfi_remember_state
	.cfi_def_cfa_offset 24
	popq	%rbx
	.cfi_def_cfa_offset 16
	popq	%rbp
	.cfi_def_cfa_offset 8
	ret
	.p2align 4,,10
	.p2align 3
.L2:
	.cfi_restore_state
	cltq
	addq	%rbp, %rax
	jmp	.L3
	.cfi_endproc
.LFE598:
	.size	stbi__refill_buffer, .-stbi__refill_buffer
	.p2align 4
	.type	resample_row_1, @function
resample_row_1:
.LFB638:
	.cfi_startproc
	movq	%rsi, %rax
	ret
	.cfi_endproc
.LFE638:
	.size	resample_row_1, .-resample_row_1
	.p2align 4
	.type	stbi__resample_row_v_2, @function
stbi__resample_row_v_2:
.LFB639:
	.cfi_startproc
	movq	%rdx, %r8
	movl	%ecx, %eax
	testl	%ecx, %ecx
	jle	.L8
	leal	-1(%rcx), %edx
	movl	%ecx, %r9d
	cmpl	$6, %edx
	jbe	.L9
	leaq	1(%rsi), %r10
	movq	%rdi, %rcx
	subq	%r10, %rcx
	cmpq	$14, %rcx
	jbe	.L9
	leaq	1(%r8), %r10
	movq	%rdi, %rcx
	subq	%r10, %rcx
	cmpq	$14, %rcx
	jbe	.L9
	cmpl	$14, %edx
	jbe	.L17
	movl	%eax, %ecx
	movdqa	.LC1(%rip), %xmm5
	xorl	%edx, %edx
	pxor	%xmm2, %xmm2
	shrl	$4, %ecx
	movdqa	.LC2(%rip), %xmm4
	movdqa	.LC5(%rip), %xmm3
	salq	$4, %rcx
	.p2align 4,,10
	.p2align 3
.L11:
	movdqu	(%rsi,%rdx), %xmm0
	movdqu	(%r8,%rdx), %xmm6
	movdqa	%xmm0, %xmm1
	punpckhbw	%xmm2, %xmm0
	movdqa	%xmm6, %xmm7
	punpcklbw	%xmm2, %xmm1
	pmullw	%xmm3, %xmm0
	punpcklbw	%xmm2, %xmm7
	pmullw	%xmm3, %xmm1
	punpckhbw	%xmm2, %xmm6
	paddw	%xmm6, %xmm0
	paddw	%xmm7, %xmm1
	paddw	%xmm5, %xmm0
	paddw	%xmm5, %xmm1
	psrlw	$2, %xmm0
	psrlw	$2, %xmm1
	pand	%xmm4, %xmm0
	pand	%xmm4, %xmm1
	packuswb	%xmm0, %xmm1
	movups	%xmm1, (%rdi,%rdx)
	addq	$16, %rdx
	cmpq	%rdx, %rcx
	jne	.L11
	movl	%eax, %edx
	andl	$-16, %edx
	movl	%edx, %ecx
	cmpl	%edx, %eax
	je	.L8
	movl	%eax, %r9d
	subl	%edx, %r9d
	leal	-1(%r9), %r10d
	cmpl	$6, %r10d
	jbe	.L13
.L10:
	movq	(%rsi,%rcx), %xmm2
	pxor	%xmm3, %xmm3
	movq	(%r8,%rcx), %xmm4
	movq	.LC3(%rip), %xmm1
	movdqa	%xmm2, %xmm6
	punpcklbw	%xmm3, %xmm2
	movdqa	%xmm4, %xmm0
	punpcklbw	%xmm3, %xmm6
	pshufd	$78, %xmm2, %xmm2
	punpcklbw	%xmm3, %xmm0
	punpcklbw	%xmm3, %xmm4
	movdqa	%xmm6, %xmm5
	movdqa	%xmm2, %xmm3
	psllw	$1, %xmm5
	pshufd	$78, %xmm4, %xmm4
	paddw	%xmm1, %xmm0
	psllw	$1, %xmm3
	paddw	%xmm6, %xmm5
	paddw	%xmm4, %xmm1
	paddw	%xmm3, %xmm2
	paddw	%xmm5, %xmm0
	paddw	%xmm2, %xmm1
	movq	.LC4(%rip), %xmm2
	psrlw	$2, %xmm0
	psrlw	$2, %xmm1
	pand	%xmm2, %xmm0
	pand	%xmm1, %xmm2
	packuswb	%xmm2, %xmm0
	pshufd	$8, %xmm0, %xmm0
	movq	%xmm0, (%rdi,%rcx)
	movl	%r9d, %ecx
	andl	$-8, %ecx
	addl	%ecx, %edx
	andl	$7, %r9d
	je	.L8
.L13:
	movslq	%edx, %rcx
	movzbl	(%rsi,%rcx), %r9d
	leal	(%r9,%r9,2), %r10d
	movzbl	(%r8,%rcx), %r9d
	leal	2(%r10,%r9), %r9d
	sarl	$2, %r9d
	movb	%r9b, (%rdi,%rcx)
	leal	1(%rdx), %ecx
	cmpl	%ecx, %eax
	jle	.L8
	movslq	%ecx, %rcx
	movzbl	(%rsi,%rcx), %r9d
	leal	(%r9,%r9,2), %r10d
	movzbl	(%r8,%rcx), %r9d
	leal	2(%r10,%r9), %r9d
	sarl	$2, %r9d
	movb	%r9b, (%rdi,%rcx)
	leal	2(%rdx), %ecx
	cmpl	%ecx, %eax
	jle	.L8
	movslq	%ecx, %rcx
	movzbl	(%rsi,%rcx), %r9d
	leal	(%r9,%r9,2), %r10d
	movzbl	(%r8,%rcx), %r9d
	leal	2(%r10,%r9), %r9d
	sarl	$2, %r9d
	movb	%r9b, (%rdi,%rcx)
	leal	3(%rdx), %ecx
	cmpl	%ecx, %eax
	jle	.L8
	movslq	%ecx, %rcx
	movzbl	(%rsi,%rcx), %r9d
	leal	(%r9,%r9,2), %r10d
	movzbl	(%r8,%rcx), %r9d
	leal	2(%r10,%r9), %r9d
	sarl	$2, %r9d
	movb	%r9b, (%rdi,%rcx)
	leal	4(%rdx), %ecx
	cmpl	%ecx, %eax
	jle	.L8
	movslq	%ecx, %rcx
	movzbl	(%rsi,%rcx), %r9d
	leal	(%r9,%r9,2), %r10d
	movzbl	(%r8,%rcx), %r9d
	leal	2(%r10,%r9), %r9d
	sarl	$2, %r9d
	movb	%r9b, (%rdi,%rcx)
	leal	5(%rdx), %ecx
	cmpl	%ecx, %eax
	jle	.L8
	movslq	%ecx, %rcx
	addl	$6, %edx
	movzbl	(%rsi,%rcx), %r9d
	leal	(%r9,%r9,2), %r10d
	movzbl	(%r8,%rcx), %r9d
	leal	2(%r10,%r9), %r9d
	sarl	$2, %r9d
	movb	%r9b, (%rdi,%rcx)
	cmpl	%edx, %eax
	jle	.L8
	movslq	%edx, %rdx
	movzbl	(%rsi,%rdx), %eax
	leal	(%rax,%rax,2), %ecx
	movzbl	(%r8,%rdx), %eax
	leal	2(%rcx,%rax), %eax
	sarl	$2, %eax
	movb	%al, (%rdi,%rdx)
.L8:
	movq	%rdi, %rax
	ret
	.p2align 4,,10
	.p2align 3
.L9:
	movslq	%eax, %rcx
	xorl	%eax, %eax
	.p2align 4,,10
	.p2align 3
.L15:
	movzbl	(%rsi,%rax), %edx
	leal	(%rdx,%rdx,2), %r9d
	movzbl	(%r8,%rax), %edx
	leal	2(%r9,%rdx), %edx
	sarl	$2, %edx
	movb	%dl, (%rdi,%rax)
	addq	$1, %rax
	cmpq	%rax, %rcx
	jne	.L15
	movq	%rdi, %rax
	ret
.L17:
	xorl	%ecx, %ecx
	xorl	%edx, %edx
	jmp	.L10
	.cfi_endproc
.LFE639:
	.size	stbi__resample_row_v_2, .-stbi__resample_row_v_2
	.p2align 4
	.type	stbi__resample_row_generic, @function
stbi__resample_row_generic:
.LFB643:
	.cfi_startproc
	movq	%rdi, %r9
	testl	%ecx, %ecx
	jle	.L53
	testl	%r8d, %r8d
	jle	.L53
	pushq	%r15
	.cfi_def_cfa_offset 16
	.cfi_offset 15, -16
	movslq	%ecx, %rcx
	movl	%r8d, %edx
	movq	%rsi, %rax
	pushq	%r14
	.cfi_def_cfa_offset 24
	.cfi_offset 14, -24
	leaq	(%rsi,%rcx), %r15
	movl	%r8d, %ecx
	shrl	$4, %edx
	pushq	%r13
	.cfi_def_cfa_offset 32
	.cfi_offset 13, -32
	andl	$15, %ecx
	movl	%r8d, %esi
	salq	$4, %rdx
	pushq	%r12
	.cfi_def_cfa_offset 40
	.cfi_offset 12, -40
	andl	$-16, %esi
	leal	-1(%r8), %r13d
	pushq	%rbp
	.cfi_def_cfa_offset 48
	.cfi_offset 6, -48
	pushq	%rbx
	.cfi_def_cfa_offset 56
	.cfi_offset 3, -56
	movslq	%r8d, %rbx
	leaq	(%rdi,%rbx), %r14
	movl	%ecx, -16(%rsp)
	subl	$1, %ecx
	movl	%ecx, -12(%rsp)
	movq	%rdx, -24(%rsp)
	movq	%r14, %rdx
	movl	%esi, -28(%rsp)
	xorl	%esi, %esi
	.p2align 4,,10
	.p2align 3
.L32:
	cmpl	$6, %r13d
	jbe	.L44
	movq	%rdx, %r11
	leaq	1(%rax), %r10
	subq	%r14, %r11
	cmpq	%r10, %rdi
	jnb	.L41
	leaq	(%rbx,%rdi), %rcx
	cmpq	%rcx, %rax
	jnb	.L41
	movq	%rdi, %rcx
	.p2align 4,,10
	.p2align 3
.L38:
	movzbl	(%rax), %r11d
	addq	$1, %rcx
	movb	%r11b, -1(%rcx)
	cmpq	%rdx, %rcx
	jne	.L38
.L39:
	addq	%rbx, %rdi
	addl	%r8d, %esi
	movq	%r10, %rax
	addq	%rbx, %rdx
	cmpq	%r15, %r10
	jne	.L32
	popq	%rbx
	.cfi_remember_state
	.cfi_def_cfa_offset 48
	movq	%r9, %rax
	popq	%rbp
	.cfi_def_cfa_offset 40
	popq	%r12
	.cfi_def_cfa_offset 32
	popq	%r13
	.cfi_def_cfa_offset 24
	popq	%r14
	.cfi_def_cfa_offset 16
	popq	%r15
	.cfi_def_cfa_offset 8
	ret
	.p2align 4,,10
	.p2align 3
.L41:
	.cfi_restore_state
	cmpl	$14, %r13d
	jbe	.L42
	movzbl	(%rax), %ecx
	movd	%ecx, %xmm0
	movq	-24(%rsp), %rcx
	punpcklbw	%xmm0, %xmm0
	punpcklwd	%xmm0, %xmm0
	leaq	(%rcx,%rdi), %rbp
	movq	%rdi, %rcx
	pshufd	$0, %xmm0, %xmm0
	.p2align 4,,10
	.p2align 3
.L34:
	movups	%xmm0, (%rcx)
	addq	$16, %rcx
	cmpq	%rbp, %rcx
	jne	.L34
	movl	-28(%rsp), %ecx
	cmpl	%r8d, %ecx
	je	.L39
	cmpl	$6, -12(%rsp)
	movl	-16(%rsp), %r12d
	jbe	.L36
	movl	%ecx, -32(%rsp)
	movl	%ecx, %ebp
.L33:
	movzbl	(%rax), %ecx
	addq	%r9, %r11
	movb	%cl, %ch
	movd	%ecx, %xmm1
	movl	%r12d, %ecx
	pshuflw	$0, %xmm1, %xmm0
	andl	$-8, %ecx
	movq	%xmm0, (%r11,%rbp)
	movl	-32(%rsp), %r11d
	addl	%r11d, %ecx
	andl	$7, %r12d
	je	.L39
.L36:
	movzbl	(%rax), %ebp
	leal	(%rsi,%rcx), %r11d
	movslq	%r11d, %r11
	movb	%bpl, (%r9,%r11)
	leal	1(%rcx), %r11d
	cmpl	%r11d, %r8d
	jle	.L39
	addl	%esi, %r11d
	movslq	%r11d, %r11
	movb	%bpl, (%r9,%r11)
	leal	2(%rcx), %r11d
	cmpl	%r11d, %r8d
	jle	.L39
	movzbl	(%rax), %ebp
	addl	%esi, %r11d
	movslq	%r11d, %r11
	movb	%bpl, (%r9,%r11)
	leal	3(%rcx), %r11d
	cmpl	%r11d, %r8d
	jle	.L39
	addl	%esi, %r11d
	movslq	%r11d, %r11
	movb	%bpl, (%r9,%r11)
	leal	4(%rcx), %r11d
	cmpl	%r11d, %r8d
	jle	.L39
	movzbl	(%rax), %ebp
	addl	%esi, %r11d
	movslq	%r11d, %r11
	movb	%bpl, (%r9,%r11)
	leal	5(%rcx), %r11d
	cmpl	%r11d, %r8d
	jle	.L39
	addl	%esi, %r11d
	addl	$6, %ecx
	movslq	%r11d, %r11
	movb	%bpl, (%r9,%r11)
	cmpl	%ecx, %r8d
	jle	.L39
	movzbl	(%rax), %eax
	addl	%esi, %ecx
	movslq	%ecx, %rcx
	movb	%al, (%r9,%rcx)
	jmp	.L39
	.p2align 4,,10
	.p2align 3
.L44:
	movq	%rdi, %rcx
	leaq	1(%rax), %r10
	jmp	.L38
.L42:
	movl	$0, -32(%rsp)
	movl	%r8d, %r12d
	xorl	%ebp, %ebp
	jmp	.L33
.L53:
	.cfi_def_cfa_offset 8
	.cfi_restore 3
	.cfi_restore 6
	.cfi_restore 12
	.cfi_restore 13
	.cfi_restore 14
	.cfi_restore 15
	movq	%r9, %rax
	ret
	.cfi_endproc
.LFE643:
	.size	stbi__resample_row_generic, .-stbi__resample_row_generic
	.p2align 4
	.type	stbi__out_gif_code, @function
stbi__out_gif_code:
.LFB724:
	.cfi_startproc
	pushq	%rbp
	.cfi_def_cfa_offset 16
	.cfi_offset 6, -16
	movzwl	%si, %ebp
	pushq	%rbx
	.cfi_def_cfa_offset 24
	.cfi_offset 3, -24
	movq	%rdi, %rbx
	subq	$8, %rsp
	.cfi_def_cfa_offset 32
	movswl	2100(%rdi,%rbp,4), %esi
	testw	%si, %si
	js	.L57
	call	stbi__out_gif_code
.L57:
	movl	34912(%rbx), %edx
	cmpl	34904(%rbx), %edx
	jge	.L56
	addl	34908(%rbx), %edx
	movq	24(%rbx), %rsi
	leal	3(%rdx), %eax
	movq	8(%rbx), %rcx
	cmovns	%edx, %eax
	sarl	$2, %eax
	cltq
	movb	$1, (%rsi,%rax)
	movzbl	2103(%rbx,%rbp,4), %eax
	sall	$2, %eax
	cltq
	addq	34872(%rbx), %rax
	cmpb	$-128, 3(%rax)
	jbe	.L59
	movslq	%edx, %rdx
	addq	%rcx, %rdx
	movzbl	2(%rax), %ecx
	movb	%cl, (%rdx)
	movzbl	1(%rax), %ecx
	movb	%cl, 1(%rdx)
	movzbl	(%rax), %ecx
	movb	%cl, 2(%rdx)
	movzbl	3(%rax), %eax
	movb	%al, 3(%rdx)
.L59:
	movl	34908(%rbx), %eax
	addl	$4, %eax
	movl	%eax, 34908(%rbx)
	cmpl	34900(%rbx), %eax
	jl	.L56
	movl	34884(%rbx), %eax
	movd	34892(%rbx), %xmm0
	addl	34912(%rbx), %eax
	movl	34904(%rbx), %edx
	movd	%eax, %xmm1
	punpckldq	%xmm1, %xmm0
	movq	%xmm0, 34908(%rbx)
	cmpl	%edx, %eax
	jl	.L56
	movl	34880(%rbx), %ecx
	jmp	.L61
	.p2align 4,,10
	.p2align 3
.L62:
	movl	34916(%rbx), %eax
	sall	%cl, %eax
	subl	$1, %ecx
	movl	%eax, 34884(%rbx)
	sarl	%eax
	addl	34896(%rbx), %eax
	movl	%eax, 34912(%rbx)
	movl	%ecx, 34880(%rbx)
	cmpl	%edx, %eax
	jl	.L56
.L61:
	testl	%ecx, %ecx
	jg	.L62
.L56:
	addq	$8, %rsp
	.cfi_def_cfa_offset 24
	popq	%rbx
	.cfi_def_cfa_offset 16
	popq	%rbp
	.cfi_def_cfa_offset 8
	ret
	.cfi_endproc
.LFE724:
	.size	stbi__out_gif_code, .-stbi__out_gif_code
	.p2align 4
	.type	stbiw__jpg_DCT, @function
stbiw__jpg_DCT:
.LFB801:
	.cfi_startproc
	movq	16(%rsp), %r10
	movss	(%rdi), %xmm1
	movq	%rdx, %rax
	movq	%rcx, %rdx
	movq	8(%rsp), %rcx
	movss	(%rsi), %xmm3
	movss	(%r10), %xmm4
	movss	(%r8), %xmm2
	movaps	%xmm1, %xmm5
	movss	(%r9), %xmm6
	movss	(%rcx), %xmm7
	movss	(%rax), %xmm8
	movss	(%rdx), %xmm0
	subss	%xmm4, %xmm1
	addss	%xmm4, %xmm5
	movaps	%xmm3, %xmm4
	subss	%xmm7, %xmm3
	addss	%xmm7, %xmm4
	movaps	%xmm8, %xmm9
	movaps	%xmm0, %xmm7
	subss	%xmm6, %xmm8
	subss	%xmm2, %xmm0
	addss	%xmm2, %xmm7
	addss	%xmm6, %xmm9
	movaps	%xmm1, %xmm2
	addss	%xmm3, %xmm2
	movaps	%xmm5, %xmm6
	addss	%xmm8, %xmm0
	addss	%xmm8, %xmm3
	movaps	%xmm1, %xmm8
	subss	%xmm7, %xmm5
	addss	%xmm7, %xmm6
	movaps	%xmm4, %xmm7
	addss	%xmm9, %xmm7
	subss	%xmm9, %xmm4
	movss	.LC6(%rip), %xmm9
	movaps	%xmm0, %xmm10
	subss	%xmm2, %xmm10
	mulss	.LC8(%rip), %xmm0
	mulss	.LC7(%rip), %xmm10
	addss	%xmm5, %xmm4
	mulss	%xmm9, %xmm3
	mulss	.LC9(%rip), %xmm2
	mulss	%xmm9, %xmm4
	addss	%xmm10, %xmm0
	subss	%xmm3, %xmm1
	addss	%xmm3, %xmm8
	addss	%xmm10, %xmm2
	movaps	%xmm0, %xmm3
	addss	%xmm1, %xmm3
	subss	%xmm0, %xmm1
	movaps	%xmm2, %xmm0
	addss	%xmm8, %xmm0
	subss	%xmm2, %xmm8
	movss	%xmm3, (%r9)
	movss	%xmm1, (%rdx)
	movss	%xmm0, (%rsi)
	movaps	%xmm6, %xmm0
	subss	%xmm7, %xmm6
	addss	%xmm7, %xmm0
	movss	%xmm8, (%r10)
	movss	%xmm0, (%rdi)
	movaps	%xmm5, %xmm0
	subss	%xmm4, %xmm5
	addss	%xmm4, %xmm0
	movss	%xmm0, (%rax)
	movss	%xmm6, (%r8)
	movss	%xmm5, (%rcx)
	ret
	.cfi_endproc
.LFE801:
	.size	stbiw__jpg_DCT, .-stbiw__jpg_DCT
	.p2align 4
	.type	stbi__stdio_eof, @function
stbi__stdio_eof:
.LFB548:
	.cfi_startproc
	pushq	%rbx
	.cfi_def_cfa_offset 16
	.cfi_offset 3, -16
	movq	%rdi, %rbx
	call	feof@PLT
	movl	%eax, %edx
	movl	$1, %eax
	testl	%edx, %edx
	je	.L70
	popq	%rbx
	.cfi_remember_state
	.cfi_def_cfa_offset 8
	ret
	.p2align 4,,10
	.p2align 3
.L70:
	.cfi_restore_state
	movq	%rbx, %rdi
	call	ferror@PLT
	popq	%rbx
	.cfi_def_cfa_offset 8
	testl	%eax, %eax
	setne	%al
	movzbl	%al, %eax
	ret
	.cfi_endproc
.LFE548:
	.size	stbi__stdio_eof, .-stbi__stdio_eof
	.p2align 4
	.type	stbi__stdio_skip, @function
stbi__stdio_skip:
.LFB547:
	.cfi_startproc
	pushq	%rbx
	.cfi_def_cfa_offset 16
	.cfi_offset 3, -16
	movslq	%esi, %rsi
	movq	%rdi, %rbx
	movl	$1, %edx
	call	fseek@PLT
	movq	%rbx, %rdi
	call	fgetc@PLT
	cmpl	$-1, %eax
	jne	.L74
	popq	%rbx
	.cfi_remember_state
	.cfi_def_cfa_offset 8
	ret
	.p2align 4,,10
	.p2align 3
.L74:
	.cfi_restore_state
	movq	%rbx, %rsi
	movl	%eax, %edi
	popq	%rbx
	.cfi_def_cfa_offset 8
	jmp	ungetc@PLT
	.cfi_endproc
.LFE547:
	.size	stbi__stdio_skip, .-stbi__stdio_skip
	.p2align 4
	.type	stbi__stdio_read, @function
stbi__stdio_read:
.LFB546:
	.cfi_startproc
	subq	$8, %rsp
	.cfi_def_cfa_offset 16
	movq	%rdi, %rcx
	movslq	%edx, %rdx
	movq	%rsi, %rdi
	movl	$1, %esi
	call	fread@PLT
	addq	$8, %rsp
	.cfi_def_cfa_offset 8
	ret
	.cfi_endproc
.LFE546:
	.size	stbi__stdio_read, .-stbi__stdio_read
	.section	.rodata.str1.1,"aMS",@progbits,1
.LC10:
	.string	"stb_image_write.h"
.LC11:
	.string	"0"
	.text
	.p2align 4
	.type	stbiw__writefv, @function
stbiw__writefv:
.LFB765:
	.cfi_startproc
	pushq	%r13
	.cfi_def_cfa_offset 16
	.cfi_offset 13, -16
	pushq	%r12
	.cfi_def_cfa_offset 24
	.cfi_offset 12, -24
	pushq	%rbp
	.cfi_def_cfa_offset 32
	.cfi_offset 6, -32
	pushq	%rbx
	.cfi_def_cfa_offset 40
	.cfi_offset 3, -40
	subq	$24, %rsp
	.cfi_def_cfa_offset 64
	movq	%fs:40, %rax
	movq	%rax, 8(%rsp)
	xorl	%eax, %eax
	movzbl	(%rsi), %eax
	testb	%al, %al
	je	.L77
	movq	%rdi, %r12
	movq	%rsi, %rbx
	leaq	4(%rsp), %r13
	movq	%rdx, %rbp
	jmp	.L91
	.p2align 4,,10
	.p2align 3
.L101:
	cmpb	$32, %al
	je	.L81
	cmpb	$49, %al
	jne	.L83
	movl	0(%rbp), %eax
	cmpl	$47, %eax
	ja	.L85
	movl	%eax, %edx
	addl	$8, %eax
	addq	16(%rbp), %rdx
	movl	%eax, 0(%rbp)
.L86:
	movl	(%rdx), %eax
	movq	8(%r12), %rdi
	leaq	3(%rsp), %rsi
	movl	$1, %edx
	movb	%al, 3(%rsp)
	call	*(%r12)
.L81:
	movzbl	(%rbx), %eax
	testb	%al, %al
	je	.L77
.L91:
	addq	$1, %rbx
	cmpb	$50, %al
	je	.L79
	jle	.L101
	cmpb	$52, %al
	jne	.L83
	movl	0(%rbp), %eax
	cmpl	$47, %eax
	ja	.L89
	movl	%eax, %edx
	addl	$8, %eax
	addq	16(%rbp), %rdx
	movl	%eax, 0(%rbp)
.L90:
	movl	(%rdx), %eax
	movq	8(%r12), %rdi
	movl	$4, %edx
	movq	%r13, %rsi
	movl	%eax, 4(%rsp)
	call	*(%r12)
	movzbl	(%rbx), %eax
	testb	%al, %al
	jne	.L91
.L77:
	movq	8(%rsp), %rax
	subq	%fs:40, %rax
	jne	.L102
	addq	$24, %rsp
	.cfi_remember_state
	.cfi_def_cfa_offset 40
	popq	%rbx
	.cfi_def_cfa_offset 32
	popq	%rbp
	.cfi_def_cfa_offset 24
	popq	%r12
	.cfi_def_cfa_offset 16
	popq	%r13
	.cfi_def_cfa_offset 8
	ret
	.p2align 4,,10
	.p2align 3
.L79:
	.cfi_restore_state
	movl	0(%rbp), %eax
	cmpl	$47, %eax
	ja	.L87
	movl	%eax, %edx
	addl	$8, %eax
	addq	16(%rbp), %rdx
	movl	%eax, 0(%rbp)
.L88:
	movzwl	(%rdx), %eax
	movq	8(%r12), %rdi
	movl	$2, %edx
	movq	%r13, %rsi
	movw	%ax, 4(%rsp)
	call	*(%r12)
	jmp	.L81
	.p2align 4,,10
	.p2align 3
.L89:
	movq	8(%rbp), %rdx
	leaq	8(%rdx), %rax
	movq	%rax, 8(%rbp)
	jmp	.L90
	.p2align 4,,10
	.p2align 3
.L87:
	movq	8(%rbp), %rdx
	leaq	8(%rdx), %rax
	movq	%rax, 8(%rbp)
	jmp	.L88
	.p2align 4,,10
	.p2align 3
.L85:
	movq	8(%rbp), %rdx
	leaq	8(%rdx), %rax
	movq	%rax, 8(%rbp)
	jmp	.L86
.L83:
	leaq	__PRETTY_FUNCTION__.30(%rip), %rcx
	movl	$372, %edx
	leaq	.LC10(%rip), %rsi
	leaq	.LC11(%rip), %rdi
	call	__assert_fail@PLT
.L102:
	call	__stack_chk_fail@PLT
	.cfi_endproc
.LFE765:
	.size	stbiw__writefv, .-stbiw__writefv
	.section	.rodata.str1.1
.LC12:
	.string	"bad code lengths"
.LC13:
	.string	"bad size list"
	.text
	.p2align 4
	.type	stbi__build_huffman, @function
stbi__build_huffman:
.LFB613:
	.cfi_startproc
	movq	%rdi, %r8
	xorl	%edx, %edx
	movl	$1, %edi
.L104:
	movl	-4(%rsi,%rdi,4), %r9d
	testl	%r9d, %r9d
	jle	.L109
	leal	1(%rdx), %eax
	movslq	%edx, %rdx
	movl	%edi, %ecx
	movb	%dil, 1280(%r8,%rdx)
	cmpl	$256, %eax
	jg	.L110
	cltq
	leal	-1(%r9), %edx
	addq	%rax, %rdx
	jmp	.L105
	.p2align 4,,10
	.p2align 3
.L107:
	movb	%cl, 1280(%r8,%rax)
	addq	$1, %rax
	cmpl	$257, %eax
	je	.L110
.L105:
	cmpq	%rax, %rdx
	jne	.L107
.L109:
	addq	$1, %rdi
	cmpq	$17, %rdi
	jne	.L104
	movslq	%edx, %rdx
	pushq	%rbx
	.cfi_def_cfa_offset 16
	.cfi_offset 3, -16
	xorl	%eax, %eax
	xorl	%esi, %esi
	movb	$0, 1280(%r8,%rdx)
	movl	$16, %r11d
	movl	$1, %edx
	jmp	.L114
	.p2align 4,,10
	.p2align 3
.L112:
	movl	%r11d, %ecx
	movl	%eax, %ebx
	addl	%eax, %eax
	subl	%r10d, %ecx
	sall	%cl, %ebx
	movl	%ebx, 1540(%r8,%rdx,4)
	addq	$1, %rdx
	cmpq	$17, %rdx
	je	.L142
.L114:
	movl	%esi, %ecx
	movl	%edx, %r10d
	movl	%edx, %r9d
	subl	%eax, %ecx
	movl	%ecx, 1612(%r8,%rdx,4)
	movslq	%esi, %rcx
	movzbl	1280(%r8,%rcx), %ecx
	cmpl	%edx, %ecx
	jne	.L112
	leal	1(%rsi), %ecx
	movslq	%ecx, %rcx
	.p2align 4,,10
	.p2align 3
.L113:
	movl	%eax, %ebx
	addl	$1, %eax
	leal	-1(%rax), %esi
	movw	%si, 510(%r8,%rcx,2)
	movq	%rcx, %rsi
	movzbl	1280(%r8,%rcx), %edi
	addq	$1, %rcx
	cmpl	%r9d, %edi
	je	.L113
	movl	%edx, %ecx
	shrl	%cl, %ebx
	testl	%ebx, %ebx
	je	.L112
	leaq	.LC12(%rip), %rax
	movq	%rax, %fs:stbi__g_failure_reason@tpoff
	xorl	%eax, %eax
	popq	%rbx
	.cfi_def_cfa_offset 8
	ret
	.p2align 4,,10
	.p2align 3
.L110:
	.cfi_restore 3
	leaq	.LC13(%rip), %rax
	movq	%rax, %fs:stbi__g_failure_reason@tpoff
	xorl	%eax, %eax
	ret
.L142:
	.cfi_def_cfa_offset 16
	.cfi_offset 3, -16
	leaq	8(%r8), %rdi
	movq	%r8, %rcx
	movq	$-1, %rax
	xorl	%edx, %edx
	andq	$-8, %rdi
	movslq	%esi, %r9
	movl	$-1, 1608(%r8)
	movl	$9, %ebx
	subq	%rdi, %rcx
	movq	$-1, (%r8)
	movl	$1, %r11d
	movabsq	$72340172838076673, %r10
	addl	$512, %ecx
	movq	$-1, 504(%r8)
	shrl	$3, %ecx
	rep stosq
	testl	%esi, %esi
	jne	.L118
	jmp	.L119
	.p2align 4,,10
	.p2align 3
.L124:
	addq	$1, %rdx
	cmpq	%rdx, %r9
	je	.L119
.L118:
	movzbl	1280(%r8,%rdx), %eax
	cmpl	$9, %eax
	jg	.L124
	movl	%ebx, %ecx
	movl	%r11d, %esi
	subl	%eax, %ecx
	movzwl	512(%r8,%rdx,2), %eax
	sall	%cl, %esi
	sall	%cl, %eax
	movslq	%eax, %rcx
	movzbl	%dl, %eax
	imulq	%r10, %rax
	addq	%r8, %rcx
	cmpl	$8, %esi
	jnb	.L120
	testb	$4, %sil
	jne	.L143
	testl	%esi, %esi
	je	.L124
	movb	%al, (%rcx)
	testb	$2, %sil
	je	.L124
	movw	%ax, -2(%rcx,%rsi)
	jmp	.L124
	.p2align 4,,10
	.p2align 3
.L120:
	movl	%esi, %edi
	movq	%rax, (%rcx)
	movq	%rax, -8(%rcx,%rdi)
	leaq	8(%rcx), %rdi
	andq	$-8, %rdi
	subq	%rdi, %rcx
	addl	%ecx, %esi
	shrl	$3, %esi
	movl	%esi, %ecx
	rep stosq
	jmp	.L124
.L119:
	movl	$1, %eax
	popq	%rbx
	.cfi_remember_state
	.cfi_def_cfa_offset 8
	ret
.L143:
	.cfi_restore_state
	movl	%eax, (%rcx)
	movl	%eax, -4(%rcx,%rsi)
	jmp	.L124
	.cfi_endproc
.LFE613:
	.size	stbi__build_huffman, .-stbi__build_huffman
	.p2align 4
	.type	stbi__getn, @function
stbi__getn:
.LFB602:
	.cfi_startproc
	pushq	%r13
	.cfi_def_cfa_offset 16
	.cfi_offset 13, -16
	pushq	%r12
	.cfi_def_cfa_offset 24
	.cfi_offset 12, -24
	pushq	%rbp
	.cfi_def_cfa_offset 32
	.cfi_offset 6, -32
	movq	%rdi, %rbp
	movq	%rsi, %rdi
	pushq	%rbx
	.cfi_def_cfa_offset 40
	.cfi_offset 3, -40
	movslq	%edx, %rbx
	subq	$8, %rsp
	.cfi_def_cfa_offset 48
	cmpq	$0, 16(%rbp)
	movq	200(%rbp), %rax
	movq	192(%rbp), %rsi
	je	.L145
	movq	%rax, %r12
	subq	%rsi, %r12
	cmpl	%ebx, %r12d
	jl	.L149
.L145:
	leaq	(%rsi,%rbx), %rcx
	xorl	%edx, %edx
	cmpq	%rcx, %rax
	jnb	.L150
	addq	$8, %rsp
	.cfi_remember_state
	.cfi_def_cfa_offset 40
	movl	%edx, %eax
	popq	%rbx
	.cfi_def_cfa_offset 32
	popq	%rbp
	.cfi_def_cfa_offset 24
	popq	%r12
	.cfi_def_cfa_offset 16
	popq	%r13
	.cfi_def_cfa_offset 8
	ret
	.p2align 4,,10
	.p2align 3
.L150:
	.cfi_restore_state
	movq	%rbx, %rdx
	call	memcpy@PLT
	addq	%rbx, 192(%rbp)
	movl	$1, %edx
	addq	$8, %rsp
	.cfi_remember_state
	.cfi_def_cfa_offset 40
	popq	%rbx
	.cfi_def_cfa_offset 32
	movl	%edx, %eax
	popq	%rbp
	.cfi_def_cfa_offset 24
	popq	%r12
	.cfi_def_cfa_offset 16
	popq	%r13
	.cfi_def_cfa_offset 8
	ret
	.p2align 4,,10
	.p2align 3
.L149:
	.cfi_restore_state
	movslq	%r12d, %r13
	subl	%r12d, %ebx
	movq	%r13, %rdx
	call	memcpy@PLT
	movl	%ebx, %edx
	movq	40(%rbp), %rdi
	leaq	(%rax,%r13), %rsi
	call	*16(%rbp)
	xorl	%edx, %edx
	cmpl	%eax, %ebx
	movq	200(%rbp), %rax
	sete	%dl
	movq	%rax, 192(%rbp)
	addq	$8, %rsp
	.cfi_def_cfa_offset 40
	movl	%edx, %eax
	popq	%rbx
	.cfi_def_cfa_offset 32
	popq	%rbp
	.cfi_def_cfa_offset 24
	popq	%r12
	.cfi_def_cfa_offset 16
	popq	%r13
	.cfi_def_cfa_offset 8
	ret
	.cfi_endproc
.LFE602:
	.size	stbi__getn, .-stbi__getn
	.p2align 4
	.type	stbi__vertical_flip, @function
stbi__vertical_flip:
.LFB570:
	.cfi_startproc
	pushq	%r14
	.cfi_def_cfa_offset 16
	.cfi_offset 14, -16
	movslq	%ecx, %rcx
	pushq	%r13
	.cfi_def_cfa_offset 24
	.cfi_offset 13, -24
	movl	%edx, %r13d
	pushq	%r12
	.cfi_def_cfa_offset 32
	.cfi_offset 12, -32
	sarl	%r13d
	pushq	%rbp
	.cfi_def_cfa_offset 40
	.cfi_offset 6, -40
	pushq	%rbx
	.cfi_def_cfa_offset 48
	.cfi_offset 3, -48
	movslq	%esi, %rbx
	imulq	%rcx, %rbx
	subq	$2064, %rsp
	.cfi_def_cfa_offset 2112
	movq	%fs:40, %rax
	movq	%rax, 2056(%rsp)
	xorl	%eax, %eax
	testl	%r13d, %r13d
	jle	.L151
	testq	%rbx, %rbx
	je	.L151
	movslq	%edx, %r11
	movq	%rdi, %rbp
	xorl	%r12d, %r12d
	movq	%rsp, %r10
	subq	$1, %r11
	imulq	%rbx, %r11
	addq	%rdi, %r11
	.p2align 4,,10
	.p2align 3
.L166:
	movq	%rbp, %r8
	movq	%r11, %rdx
	movq	%rbx, %r9
	jmp	.L165
	.p2align 4,,10
	.p2align 3
.L194:
	testb	$4, %al
	jne	.L189
	testl	%eax, %eax
	je	.L162
	movzbl	(%r10), %ecx
	movb	%cl, (%rdx)
	testb	$2, %al
	jne	.L190
.L162:
	addq	%rax, %r8
	addq	%rax, %rdx
	subq	%rax, %r9
	je	.L191
.L165:
	movl	$2048, %eax
	movq	%r10, %rdi
	movq	%r8, %rsi
	cmpq	%rax, %r9
	cmovbe	%r9, %rax
	cmpl	$8, %eax
	jb	.L153
	movl	%eax, %ecx
	shrl	$3, %ecx
	rep movsq
.L153:
	xorl	%ecx, %ecx
	testb	$4, %al
	je	.L154
	movl	(%rsi), %ecx
	movl	%ecx, (%rdi)
	movl	$4, %ecx
.L154:
	testb	$2, %al
	je	.L155
	movzwl	(%rsi,%rcx), %r14d
	movw	%r14w, (%rdi,%rcx)
	addq	$2, %rcx
.L155:
	testb	$1, %al
	je	.L156
	movzbl	(%rsi,%rcx), %esi
	movb	%sil, (%rdi,%rcx)
.L156:
	cmpl	$8, %eax
	jnb	.L157
	testb	$4, %al
	jne	.L192
	testl	%eax, %eax
	je	.L158
	movzbl	(%rdx), %ecx
	movb	%cl, (%r8)
	testb	$2, %al
	jne	.L193
.L158:
	cmpl	$8, %eax
	jb	.L194
	movq	(%r10), %rcx
	leaq	8(%rdx), %rdi
	addq	%rax, %r8
	andq	$-8, %rdi
	movq	%rcx, (%rdx)
	movl	%eax, %ecx
	movq	-8(%r10,%rcx), %rsi
	movq	%rsi, -8(%rdx,%rcx)
	movq	%rdx, %rcx
	movq	%r10, %rsi
	addq	%rax, %rdx
	subq	%rdi, %rcx
	subq	%rcx, %rsi
	addl	%eax, %ecx
	shrl	$3, %ecx
	rep movsq
	subq	%rax, %r9
	jne	.L165
.L191:
	addl	$1, %r12d
	addq	%rbx, %rbp
	subq	%rbx, %r11
	cmpl	%r13d, %r12d
	jne	.L166
.L151:
	movq	2056(%rsp), %rax
	subq	%fs:40, %rax
	jne	.L195
	addq	$2064, %rsp
	.cfi_remember_state
	.cfi_def_cfa_offset 48
	popq	%rbx
	.cfi_def_cfa_offset 40
	popq	%rbp
	.cfi_def_cfa_offset 32
	popq	%r12
	.cfi_def_cfa_offset 24
	popq	%r13
	.cfi_def_cfa_offset 16
	popq	%r14
	.cfi_def_cfa_offset 8
	ret
	.p2align 4,,10
	.p2align 3
.L157:
	.cfi_restore_state
	movq	(%rdx), %rcx
	leaq	8(%r8), %rdi
	andq	$-8, %rdi
	movq	%rcx, (%r8)
	movl	%eax, %ecx
	movq	-8(%rdx,%rcx), %rsi
	movq	%rsi, -8(%r8,%rcx)
	movq	%r8, %rcx
	movq	%rdx, %rsi
	subq	%rdi, %rcx
	subq	%rcx, %rsi
	addl	%eax, %ecx
	shrl	$3, %ecx
	rep movsq
	jmp	.L158
	.p2align 4,,10
	.p2align 3
.L189:
	movl	(%r10), %ecx
	movl	%ecx, (%rdx)
	movl	%eax, %ecx
	movl	-4(%r10,%rcx), %esi
	movl	%esi, -4(%rdx,%rcx)
	jmp	.L162
	.p2align 4,,10
	.p2align 3
.L192:
	movl	(%rdx), %ecx
	movl	%ecx, (%r8)
	movl	%eax, %ecx
	movl	-4(%rdx,%rcx), %esi
	movl	%esi, -4(%r8,%rcx)
	jmp	.L158
	.p2align 4,,10
	.p2align 3
.L190:
	movl	%eax, %ecx
	movzwl	-2(%r10,%rcx), %esi
	movw	%si, -2(%rdx,%rcx)
	jmp	.L162
	.p2align 4,,10
	.p2align 3
.L193:
	movl	%eax, %ecx
	movzwl	-2(%rdx,%rcx), %esi
	movw	%si, -2(%r8,%rcx)
	jmp	.L158
.L195:
	call	__stack_chk_fail@PLT
	.cfi_endproc
.LFE570:
	.size	stbi__vertical_flip, .-stbi__vertical_flip
	.p2align 4
	.type	stbiw__encode_png_line, @function
stbiw__encode_png_line:
.LFB796:
	.cfi_startproc
	pushq	%r15
	.cfi_def_cfa_offset 16
	.cfi_offset 15, -16
	movl	%ecx, %eax
	testl	%r8d, %r8d
	leaq	firstmap.19(%rip), %rcx
	pushq	%r14
	.cfi_def_cfa_offset 24
	.cfi_offset 14, -24
	movq	%rdi, %r11
	movl	%esi, %r10d
	pushq	%r13
	.cfi_def_cfa_offset 32
	.cfi_offset 13, -32
	pushq	%r12
	.cfi_def_cfa_offset 40
	.cfi_offset 12, -40
	pushq	%rbp
	.cfi_def_cfa_offset 48
	.cfi_offset 6, -48
	pushq	%rbx
	.cfi_def_cfa_offset 56
	.cfi_offset 3, -56
	movl	%edx, %ebx
	leaq	mapping.20(%rip), %rdx
	movq	64(%rsp), %rdi
	cmove	%rcx, %rdx
	movslq	56(%rsp), %rcx
	movl	(%rdx,%rcx,4), %r12d
	movl	stbi__flip_vertically_on_write(%rip), %edx
	testl	%edx, %edx
	je	.L198
	subl	$1, %eax
	negl	%r10d
	subl	%r8d, %eax
	imull	%esi, %eax
	cltq
	leaq	(%r11,%rax), %rsi
	testl	%r12d, %r12d
	je	.L200
.L386:
	testl	%r9d, %r9d
	jle	.L202
	movl	%r10d, %r11d
	movslq	%r9d, %rax
	movq	%rsi, %r8
	movq	%rdi, %rcx
	negl	%r11d
	addq	%rdi, %rax
	leaq	.L205(%rip), %rbp
	movl	%r12d, %r13d
	.p2align 4,,10
	.p2align 3
.L211:
	cmpl	$6, %r12d
	ja	.L203
	movslq	0(%rbp,%r13,4), %rdx
	addq	%rbp, %rdx
	jmp	*%rdx
	.section	.rodata
	.align 4
	.align 4
.L205:
	.long	.L203-.L205
	.long	.L204-.L205
	.long	.L207-.L205
	.long	.L208-.L205
	.long	.L207-.L205
	.long	.L204-.L205
	.long	.L204-.L205
	.text
	.p2align 4,,10
	.p2align 3
.L204:
	movzbl	(%r8), %edx
	movb	%dl, (%rcx)
.L203:
	addq	$1, %rcx
	addq	$1, %r8
	addl	$1, %r11d
	cmpq	%rcx, %rax
	jne	.L211
.L202:
	cmpl	$6, %r12d
	ja	.L196
	leaq	.L214(%rip), %rdx
	movl	%r12d, %eax
	movslq	(%rdx,%rax,4), %rax
	addq	%rdx, %rax
	jmp	*%rax
	.section	.rodata
	.align 4
	.align 4
.L214:
	.long	.L196-.L214
	.long	.L219-.L214
	.long	.L218-.L214
	.long	.L217-.L214
	.long	.L216-.L214
	.long	.L215-.L214
	.long	.L213-.L214
	.text
	.p2align 4,,10
	.p2align 3
.L207:
	movslq	%r11d, %r14
	movzbl	(%r8), %edx
	subb	(%rsi,%r14), %dl
	movb	%dl, (%rcx)
	jmp	.L203
	.p2align 4,,10
	.p2align 3
.L208:
	movslq	%r11d, %rdx
	movzbl	(%rsi,%rdx), %r14d
	movzbl	(%r8), %edx
	shrb	%r14b
	subl	%r14d, %edx
	movb	%dl, (%rcx)
	jmp	.L203
	.p2align 4,,10
	.p2align 3
.L213:
	imull	%r9d, %ebx
	cmpl	%ebx, %r9d
	jge	.L196
	movl	%ebx, %ecx
	movslq	%r9d, %rax
	subl	%r9d, %ecx
	leal	-1(%rcx), %edx
	cmpl	$6, %edx
	jbe	.L265
	leaq	(%rdi,%rax), %r8
	leaq	1(%rsi,%rax), %r11
	movq	%r8, %r10
	subq	%r11, %r10
	cmpq	$14, %r10
	jbe	.L265
	leaq	1(%rsi), %r11
	movq	%r8, %r10
	subq	%r11, %r10
	cmpq	$14, %r10
	ja	.L385
.L265:
	movq	%rsi, %rcx
	subq	%rax, %rcx
	.p2align 4,,10
	.p2align 3
.L272:
	movzbl	(%rsi,%rax), %edx
	subb	(%rcx,%rax), %dl
	movb	%dl, (%rdi,%rax)
	addq	$1, %rax
	cmpl	%eax, %ebx
	jg	.L272
.L196:
	popq	%rbx
	.cfi_remember_state
	.cfi_def_cfa_offset 48
	popq	%rbp
	.cfi_def_cfa_offset 40
	popq	%r12
	.cfi_def_cfa_offset 32
	popq	%r13
	.cfi_def_cfa_offset 24
	popq	%r14
	.cfi_def_cfa_offset 16
	popq	%r15
	.cfi_def_cfa_offset 8
	ret
	.p2align 4,,10
	.p2align 3
.L198:
	.cfi_restore_state
	imull	%esi, %r8d
	movslq	%r8d, %r8
	leaq	(%r11,%r8), %rsi
	testl	%r12d, %r12d
	jne	.L386
.L200:
	imull	%ebx, %r9d
	popq	%rbx
	.cfi_remember_state
	.cfi_def_cfa_offset 48
	popq	%rbp
	.cfi_def_cfa_offset 40
	popq	%r12
	.cfi_def_cfa_offset 32
	popq	%r13
	.cfi_def_cfa_offset 24
	popq	%r14
	.cfi_def_cfa_offset 16
	popq	%r15
	.cfi_def_cfa_offset 8
	movslq	%r9d, %rdx
	jmp	memcpy@PLT
	.p2align 4,,10
	.p2align 3
.L219:
	.cfi_restore_state
	imull	%r9d, %ebx
	cmpl	%r9d, %ebx
	jle	.L196
	movl	%ebx, %ecx
	movslq	%r9d, %rax
	subl	%r9d, %ecx
	leal	-1(%rcx), %edx
	cmpl	$6, %edx
	jbe	.L226
	leaq	(%rdi,%rax), %r8
	leaq	1(%rsi,%rax), %r11
	movq	%r8, %r10
	subq	%r11, %r10
	cmpq	$14, %r10
	jbe	.L226
	leaq	1(%rsi), %r11
	movq	%r8, %r10
	subq	%r11, %r10
	cmpq	$14, %r10
	jbe	.L226
	cmpl	$14, %edx
	jbe	.L278
	movl	%ecx, %r10d
	leaq	(%rsi,%rax), %r11
	xorl	%edx, %edx
	shrl	$4, %r10d
	salq	$4, %r10
	.p2align 4,,10
	.p2align 3
.L228:
	movdqu	(%r11,%rdx), %xmm0
	movdqu	(%rsi,%rdx), %xmm5
	psubb	%xmm5, %xmm0
	movups	%xmm0, (%r8,%rdx)
	addq	$16, %rdx
	cmpq	%rdx, %r10
	jne	.L228
.L384:
	movl	%ecx, %r8d
	andl	$-16, %r8d
	leal	(%r8,%r9), %edx
	testb	$15, %cl
	je	.L196
	subl	%r8d, %ecx
	leal	-1(%rcx), %r10d
	cmpl	$6, %r10d
	jbe	.L270
.L266:
	addq	%r8, %rax
	movq	(%rsi,%r8), %xmm1
	movq	(%rsi,%rax), %xmm0
	psubb	%xmm1, %xmm0
	movq	%xmm0, (%rdi,%rax)
	movl	%ecx, %eax
	andl	$-8, %eax
	addl	%eax, %edx
	andl	$7, %ecx
	je	.L196
.L270:
	movl	%edx, %ecx
	movslq	%edx, %r8
	subl	%r9d, %ecx
	movzbl	(%rsi,%r8), %eax
	movslq	%ecx, %rcx
	subb	(%rsi,%rcx), %al
	movb	%al, (%rdi,%r8)
	leal	1(%rdx), %eax
	cmpl	%eax, %ebx
	jle	.L196
	movslq	%eax, %r8
	subl	%r9d, %eax
	cltq
	movzbl	(%rsi,%r8), %ecx
	subb	(%rsi,%rax), %cl
	leal	2(%rdx), %eax
	movb	%cl, (%rdi,%r8)
	cmpl	%eax, %ebx
	jle	.L196
	movslq	%eax, %r8
	subl	%r9d, %eax
	cltq
	movzbl	(%rsi,%r8), %ecx
	subb	(%rsi,%rax), %cl
	leal	3(%rdx), %eax
	movb	%cl, (%rdi,%r8)
	cmpl	%eax, %ebx
	jle	.L196
	movslq	%eax, %r8
	subl	%r9d, %eax
	cltq
	movzbl	(%rsi,%r8), %ecx
	subb	(%rsi,%rax), %cl
	leal	4(%rdx), %eax
	movb	%cl, (%rdi,%r8)
	cmpl	%eax, %ebx
	jle	.L196
	movslq	%eax, %r8
	subl	%r9d, %eax
	cltq
	movzbl	(%rsi,%r8), %ecx
	subb	(%rsi,%rax), %cl
	leal	5(%rdx), %eax
	movb	%cl, (%rdi,%r8)
	cmpl	%eax, %ebx
	jle	.L196
	movslq	%eax, %r8
	subl	%r9d, %eax
	addl	$6, %edx
	cltq
	movzbl	(%rsi,%r8), %ecx
	subb	(%rsi,%rax), %cl
	movb	%cl, (%rdi,%r8)
	cmpl	%edx, %ebx
	jle	.L196
	movslq	%edx, %rcx
	subl	%r9d, %edx
	movslq	%edx, %rax
	movzbl	(%rsi,%rcx), %edx
	subb	(%rsi,%rax), %dl
	movb	%dl, (%rdi,%rcx)
	jmp	.L196
	.p2align 4,,10
	.p2align 3
.L218:
	imull	%r9d, %ebx
	cmpl	%ebx, %r9d
	jge	.L196
	movl	%ebx, %r8d
	movslq	%r9d, %rax
	movslq	%r10d, %rcx
	subl	%r9d, %r8d
	leal	-1(%r8), %edx
	cmpl	$6, %edx
	jbe	.L235
	leaq	(%rdi,%rax), %r11
	leaq	1(%rsi,%rax), %r13
	movslq	%r10d, %rcx
	movq	%rax, %rbp
	movq	%r11, %r12
	subq	%rcx, %rbp
	subq	%r13, %r12
	cmpq	$14, %r12
	jbe	.L235
	leaq	1(%rsi,%rbp), %r13
	movq	%r11, %r12
	subq	%r13, %r12
	cmpq	$14, %r12
	jbe	.L235
	cmpl	$14, %edx
	jbe	.L276
	leaq	(%rsi,%rbp), %rcx
	movl	%r8d, %ebp
	leaq	(%rsi,%rax), %r12
	xorl	%edx, %edx
	shrl	$4, %ebp
	salq	$4, %rbp
	.p2align 4,,10
	.p2align 3
.L237:
	movdqu	(%r12,%rdx), %xmm0
	movdqu	(%rcx,%rdx), %xmm5
	psubb	%xmm5, %xmm0
	movups	%xmm0, (%r11,%rdx)
	addq	$16, %rdx
	cmpq	%rdx, %rbp
	jne	.L237
	movl	%r8d, %edx
	andl	$-16, %edx
	addl	%edx, %r9d
	testb	$15, %r8b
	je	.L196
	subl	%edx, %r8d
	leal	-1(%r8), %r11d
	cmpl	$6, %r11d
	jbe	.L240
.L236:
	addq	%rdx, %rax
	movq	(%rcx,%rdx), %xmm1
	movq	(%rsi,%rax), %xmm0
	psubb	%xmm1, %xmm0
	movq	%xmm0, (%rdi,%rax)
	movl	%r8d, %eax
	andl	$-8, %eax
	addl	%eax, %r9d
	andl	$7, %r8d
	je	.L196
.L240:
	movl	%r9d, %edx
	movslq	%r9d, %rcx
	subl	%r10d, %edx
	movzbl	(%rsi,%rcx), %eax
	movslq	%edx, %rdx
	subb	(%rsi,%rdx), %al
	movb	%al, (%rdi,%rcx)
	leal	1(%r9), %eax
	cmpl	%ebx, %eax
	jge	.L196
	movslq	%eax, %rcx
	subl	%r10d, %eax
	cltq
	movzbl	(%rsi,%rcx), %edx
	subb	(%rsi,%rax), %dl
	leal	2(%r9), %eax
	movb	%dl, (%rdi,%rcx)
	cmpl	%ebx, %eax
	jge	.L196
	movslq	%eax, %rcx
	subl	%r10d, %eax
	cltq
	movzbl	(%rsi,%rcx), %edx
	subb	(%rsi,%rax), %dl
	leal	3(%r9), %eax
	movb	%dl, (%rdi,%rcx)
	cmpl	%eax, %ebx
	jle	.L196
	movslq	%eax, %rcx
	subl	%r10d, %eax
	cltq
	movzbl	(%rsi,%rcx), %edx
	subb	(%rsi,%rax), %dl
	leal	4(%r9), %eax
	movb	%dl, (%rdi,%rcx)
	cmpl	%ebx, %eax
	jge	.L196
	movslq	%eax, %rcx
	subl	%r10d, %eax
	cltq
	movzbl	(%rsi,%rcx), %edx
	subb	(%rsi,%rax), %dl
	leal	5(%r9), %eax
	movb	%dl, (%rdi,%rcx)
	cmpl	%eax, %ebx
	jle	.L196
	movslq	%eax, %rcx
	subl	%r10d, %eax
	addl	$6, %r9d
	cltq
	movzbl	(%rsi,%rcx), %edx
	subb	(%rsi,%rax), %dl
	movb	%dl, (%rdi,%rcx)
	cmpl	%r9d, %ebx
	jle	.L196
	movslq	%r9d, %rcx
	subl	%r10d, %r9d
	movslq	%r9d, %rax
	movzbl	(%rsi,%rcx), %edx
	subb	(%rsi,%rax), %dl
	movb	%dl, (%rdi,%rcx)
	jmp	.L196
	.p2align 4,,10
	.p2align 3
.L216:
	imull	%r9d, %ebx
	movl	%ebx, -92(%rsp)
	cmpl	%r9d, %ebx
	jle	.L196
	subl	%r9d, %ebx
	movslq	%r10d, %rcx
	leal	-1(%rbx), %eax
	cmpl	$14, %eax
	movslq	%r9d, %rax
	jbe	.L250
	leaq	(%rdi,%rax), %r11
	leaq	1(%rsi,%rax), %rbp
	movslq	%r10d, %rcx
	movq	%rax, %rdx
	movq	%r11, %r8
	movl	%r10d, %r13d
	leaq	1(%rsi), %r12
	subq	%rcx, %rdx
	subq	%rbp, %r8
	negl	%r13d
	movq	%r11, %rbp
	cmpq	$14, %r8
	movslq	%r13d, %r13
	seta	%r8b
	subq	%r12, %rbp
	leaq	1(%rsi,%rdx), %r12
	cmpq	$14, %rbp
	seta	%bpl
	andl	%ebp, %r8d
	movq	%r11, %rbp
	subq	%r12, %rbp
	cmpq	$14, %rbp
	seta	%bpl
	testb	%bpl, %r8b
	je	.L250
	leaq	1(%rsi,%r13), %rbp
	movq	%r11, %r8
	subq	%rbp, %r8
	cmpq	$14, %r8
	jbe	.L250
	movl	%ebx, %r8d
	leaq	(%rsi,%rdx), %r10
	leaq	(%rsi,%rax), %rbp
	addq	%rsi, %r13
	shrl	$4, %r8d
	pxor	%xmm14, %xmm14
	pxor	%xmm13, %xmm13
	xorl	%edx, %edx
	salq	$4, %r8
.L251:
	movdqu	0(%r13,%rdx), %xmm0
	pxor	%xmm6, %xmm6
	movdqu	(%rsi,%rdx), %xmm7
	movdqu	0(%r13,%rdx), %xmm1
	movdqu	(%r10,%rdx), %xmm4
	movdqa	%xmm6, %xmm3
	punpckhbw	%xmm6, %xmm0
	punpcklbw	%xmm6, %xmm7
	movdqa	%xmm0, %xmm5
	punpcklbw	%xmm6, %xmm1
	punpckhbw	%xmm6, %xmm4
	punpckhwd	%xmm14, %xmm5
	movdqa	%xmm7, %xmm15
	movdqa	%xmm1, %xmm9
	movaps	%xmm5, -56(%rsp)
	movdqu	(%r10,%rdx), %xmm5
	punpcklwd	%xmm14, %xmm15
	punpcklwd	%xmm14, %xmm9
	movdqa	%xmm0, %xmm8
	punpckhwd	%xmm14, %xmm7
	punpckhwd	%xmm14, %xmm1
	punpcklbw	%xmm6, %xmm5
	movdqu	(%rsi,%rdx), %xmm6
	punpcklwd	%xmm14, %xmm8
	movdqa	%xmm7, %xmm2
	movdqa	%xmm5, %xmm11
	movaps	%xmm8, -72(%rsp)
	punpckhwd	%xmm14, %xmm5
	movdqa	%xmm4, %xmm10
	punpcklwd	%xmm14, %xmm11
	punpckhbw	%xmm3, %xmm6
	movdqa	%xmm15, %xmm3
	movaps	%xmm1, -88(%rsp)
	paddd	%xmm11, %xmm3
	paddd	%xmm5, %xmm2
	movdqa	%xmm6, %xmm12
	psubd	%xmm9, %xmm3
	psubd	-88(%rsp), %xmm2
	punpcklwd	%xmm14, %xmm12
	movdqa	%xmm3, %xmm8
	punpcklwd	%xmm14, %xmm10
	movdqa	%xmm12, %xmm1
	psubd	%xmm15, %xmm8
	paddd	%xmm10, %xmm1
	punpckhwd	%xmm14, %xmm6
	movdqa	%xmm8, %xmm15
	psubd	-72(%rsp), %xmm1
	punpckhwd	%xmm14, %xmm4
	psrad	$31, %xmm15
	movdqa	%xmm6, %xmm0
	pxor	%xmm15, %xmm8
	paddd	%xmm4, %xmm0
	psubd	-56(%rsp), %xmm0
	psubd	%xmm15, %xmm8
	movdqa	%xmm2, %xmm15
	psubd	%xmm7, %xmm15
	movaps	%xmm8, -40(%rsp)
	movdqa	%xmm15, %xmm7
	movdqa	%xmm15, %xmm8
	psrad	$31, %xmm7
	pxor	%xmm7, %xmm8
	movdqa	%xmm8, %xmm15
	psubd	%xmm7, %xmm15
	movdqa	%xmm1, %xmm7
	psubd	%xmm12, %xmm7
	movdqa	%xmm7, %xmm12
	psrad	$31, %xmm12
	pxor	%xmm12, %xmm7
	psubd	%xmm12, %xmm7
	movdqa	%xmm7, %xmm12
	movdqa	%xmm0, %xmm7
	psubd	%xmm6, %xmm7
	movdqa	%xmm7, %xmm6
	psrad	$31, %xmm6
	pxor	%xmm6, %xmm7
	psubd	%xmm6, %xmm7
	movdqa	%xmm3, %xmm6
	psubd	%xmm9, %xmm3
	psubd	%xmm11, %xmm6
	movdqa	%xmm0, %xmm11
	movaps	%xmm7, -24(%rsp)
	psubd	-56(%rsp), %xmm0
	psubd	%xmm4, %xmm11
	movdqa	%xmm6, %xmm7
	psrad	$31, %xmm7
	movdqa	%xmm11, %xmm4
	movdqa	%xmm11, %xmm8
	psrad	$31, %xmm4
	pxor	%xmm7, %xmm6
	psubd	%xmm7, %xmm6
	pxor	%xmm4, %xmm8
	movdqa	%xmm2, %xmm7
	psubd	%xmm4, %xmm8
	psubd	%xmm5, %xmm7
	movdqa	%xmm3, %xmm4
	psrad	$31, %xmm4
	psubd	-88(%rsp), %xmm2
	movdqa	%xmm7, %xmm5
	psrad	$31, %xmm5
	pxor	%xmm4, %xmm3
	psubd	%xmm4, %xmm3
	pxor	%xmm5, %xmm7
	movdqa	%xmm2, %xmm4
	psubd	%xmm5, %xmm7
	psrad	$31, %xmm4
	movdqa	%xmm1, %xmm5
	psubd	-72(%rsp), %xmm1
	pxor	%xmm4, %xmm2
	psubd	%xmm10, %xmm5
	psubd	%xmm4, %xmm2
	movdqa	%xmm5, %xmm10
	movdqa	%xmm1, %xmm4
	psrad	$31, %xmm10
	psrad	$31, %xmm4
	pxor	%xmm10, %xmm5
	pxor	%xmm4, %xmm1
	psubd	%xmm10, %xmm5
	psubd	%xmm4, %xmm1
	movdqa	%xmm0, %xmm4
	psrad	$31, %xmm4
	pxor	%xmm4, %xmm0
	psubd	%xmm4, %xmm0
	movdqa	%xmm6, %xmm4
	pcmpgtd	%xmm3, %xmm4
	movdqa	%xmm4, %xmm9
	pand	%xmm4, %xmm3
	pandn	%xmm6, %xmm9
	por	%xmm9, %xmm3
	movdqa	%xmm7, %xmm9
	pcmpgtd	%xmm2, %xmm9
	movdqa	%xmm9, %xmm6
	pand	%xmm9, %xmm2
	movdqa	%xmm9, %xmm11
	pandn	%xmm7, %xmm6
	pcmpeqd	%xmm13, %xmm11
	por	%xmm6, %xmm2
	movdqa	%xmm5, %xmm6
	pcmpgtd	%xmm1, %xmm6
	movdqa	%xmm6, %xmm7
	pand	%xmm6, %xmm1
	pandn	%xmm5, %xmm7
	movdqa	%xmm8, %xmm5
	pcmpgtd	%xmm0, %xmm5
	por	%xmm7, %xmm1
	movdqa	%xmm5, %xmm7
	pand	%xmm5, %xmm0
	movdqa	%xmm5, %xmm10
	pandn	%xmm8, %xmm7
	movdqa	-24(%rsp), %xmm8
	pcmpeqd	%xmm13, %xmm10
	por	%xmm0, %xmm7
	movdqa	-40(%rsp), %xmm0
	pcmpgtd	%xmm7, %xmm8
	movdqa	%xmm6, %xmm7
	pcmpgtd	%xmm3, %xmm0
	pcmpeqd	%xmm13, %xmm7
	movdqa	%xmm15, %xmm3
	pcmpgtd	%xmm2, %xmm3
	movdqa	%xmm12, %xmm2
	pcmpgtd	%xmm1, %xmm2
	movdqa	%xmm4, %xmm1
	pand	%xmm8, %xmm10
	pcmpeqd	%xmm13, %xmm1
	pand	%xmm0, %xmm4
	pand	%xmm8, %xmm5
	pand	%xmm3, %xmm11
	pcmpeqd	%xmm13, %xmm8
	pand	%xmm3, %xmm9
	pcmpeqd	%xmm13, %xmm3
	pand	%xmm2, %xmm7
	pand	%xmm2, %xmm6
	pand	%xmm0, %xmm1
	pcmpeqd	%xmm13, %xmm0
	pcmpeqd	%xmm13, %xmm2
	movdqa	%xmm0, %xmm12
	punpcklwd	%xmm3, %xmm0
	punpckhwd	%xmm3, %xmm12
	movdqa	%xmm0, %xmm3
	punpckhwd	%xmm12, %xmm3
	punpcklwd	%xmm12, %xmm0
	punpcklwd	%xmm3, %xmm0
	movdqa	%xmm2, %xmm3
	punpcklwd	%xmm8, %xmm2
	punpckhwd	%xmm8, %xmm3
	movdqa	%xmm2, %xmm8
	pand	.LC2(%rip), %xmm0
	punpckhwd	%xmm3, %xmm8
	punpcklwd	%xmm3, %xmm2
	movdqu	(%r10,%rdx), %xmm3
	punpcklwd	%xmm8, %xmm2
	pand	.LC2(%rip), %xmm2
	packuswb	%xmm2, %xmm0
	movdqu	(%rsi,%rdx), %xmm2
	pand	%xmm0, %xmm2
	pandn	%xmm3, %xmm0
	por	%xmm2, %xmm0
	movdqa	%xmm1, %xmm2
	punpcklwd	%xmm11, %xmm1
	punpckhwd	%xmm11, %xmm2
	movdqa	%xmm1, %xmm3
	punpckhwd	%xmm2, %xmm3
	punpcklwd	%xmm2, %xmm1
	movdqa	%xmm7, %xmm2
	punpcklwd	%xmm10, %xmm7
	punpckhwd	%xmm10, %xmm2
	punpcklwd	%xmm3, %xmm1
	movdqa	%xmm7, %xmm3
	punpcklwd	%xmm2, %xmm7
	pand	.LC2(%rip), %xmm1
	punpckhwd	%xmm2, %xmm3
	movdqu	(%r10,%rdx), %xmm2
	punpcklwd	%xmm3, %xmm7
	pand	.LC2(%rip), %xmm7
	packuswb	%xmm7, %xmm1
	pand	%xmm1, %xmm2
	pandn	%xmm0, %xmm1
	movdqa	%xmm4, %xmm0
	punpcklwd	%xmm9, %xmm4
	punpckhwd	%xmm9, %xmm0
	por	%xmm2, %xmm1
	movdqa	%xmm4, %xmm2
	punpcklwd	%xmm0, %xmm4
	punpckhwd	%xmm0, %xmm2
	movdqa	%xmm6, %xmm0
	punpcklwd	%xmm5, %xmm6
	punpckhwd	%xmm5, %xmm0
	punpcklwd	%xmm2, %xmm4
	movdqa	%xmm6, %xmm2
	punpckhwd	%xmm0, %xmm2
	punpcklwd	%xmm0, %xmm6
	pand	.LC2(%rip), %xmm4
	movdqu	0(%r13,%rdx), %xmm0
	punpcklwd	%xmm2, %xmm6
	pand	.LC2(%rip), %xmm6
	packuswb	%xmm6, %xmm4
	pand	%xmm4, %xmm0
	pandn	%xmm1, %xmm4
	por	%xmm0, %xmm4
	movdqu	0(%rbp,%rdx), %xmm0
	psubb	%xmm4, %xmm0
	movups	%xmm0, (%r11,%rdx)
	addq	$16, %rdx
	cmpq	%rdx, %r8
	jne	.L251
	movl	%ebx, %edx
	andl	$-16, %edx
	addl	%edx, %r9d
	andl	$15, %ebx
	je	.L196
	leaq	(%rax,%rcx), %rdx
	movq	%rsi, %r15
	movq	%rsi, %r14
	movslq	%r9d, %r9
	subq	%rdx, %r15
	subq	%rax, %r14
	jmp	.L255
	.p2align 4,,10
	.p2align 3
.L254:
	cmpl	%edx, %ecx
	cmovle	%ebp, %r8d
.L256:
	subl	%r8d, %r10d
	movb	%r10b, (%rdi,%r9)
	addq	$1, %r9
	cmpl	%r9d, -92(%rsp)
	jle	.L196
.L255:
	movzbl	0(%r13,%r9), %ecx
	movzbl	(%r14,%r9), %ebx
	movzbl	(%r15,%r9), %edx
	movzbl	(%rsi,%r9), %r10d
	leal	(%rcx,%rbx), %eax
	movl	%ecx, %ebp
	subl	%edx, %eax
	movl	%edx, %r8d
	movl	%eax, %r11d
	subl	%ecx, %r11d
	movl	%r11d, %ecx
	negl	%ecx
	cmovs	%r11d, %ecx
	movl	%eax, %r11d
	subl	%edx, %r11d
	movl	%r11d, %edx
	negl	%edx
	cmovs	%r11d, %edx
	subl	%ebx, %eax
	movl	%eax, %r11d
	negl	%r11d
	cmovns	%r11d, %eax
	cmpl	%edx, %ecx
	movl	%edx, %r11d
	cmovle	%ecx, %r11d
	cmpl	%r11d, %eax
	jg	.L254
	movl	%ebx, %r8d
	jmp	.L256
	.p2align 4,,10
	.p2align 3
.L217:
	imull	%r9d, %ebx
	cmpl	%r9d, %ebx
	jle	.L196
	movl	%ebx, %ebp
	movslq	%r10d, %rcx
	subl	%r9d, %ebp
	leal	-1(%rbp), %eax
	cmpl	$14, %eax
	movslq	%r9d, %rax
	jbe	.L244
	leaq	(%rdi,%rax), %r8
	leaq	1(%rsi,%rax), %r12
	movslq	%r10d, %rcx
	movq	%rax, %rdx
	movq	%r8, %r11
	subq	%rcx, %rdx
	leaq	1(%rsi), %r13
	subq	%r12, %r11
	cmpq	$14, %r11
	movq	%r8, %r11
	seta	%r12b
	subq	%r13, %r11
	cmpq	$14, %r11
	seta	%r11b
	testb	%r11b, %r12b
	je	.L244
	leaq	1(%rsi,%rdx), %r12
	movq	%r8, %r11
	subq	%r12, %r11
	cmpq	$14, %r11
	jbe	.L244
	movl	%ebp, %r11d
	movdqa	.LC14(%rip), %xmm4
	leaq	(%rsi,%rdx), %rcx
	addq	%rsi, %rax
	shrl	$4, %r11d
	movdqa	.LC15(%rip), %xmm3
	xorl	%edx, %edx
	salq	$4, %r11
	.p2align 4,,10
	.p2align 3
.L245:
	movdqu	(%rsi,%rdx), %xmm0
	movdqu	(%rcx,%rdx), %xmm5
	movdqu	(%rax,%rdx), %xmm2
	movdqu	(%rcx,%rdx), %xmm1
	pand	%xmm5, %xmm0
	pand	%xmm4, %xmm0
	psrlw	$1, %xmm1
	psubb	%xmm0, %xmm2
	movdqu	(%rsi,%rdx), %xmm0
	pand	%xmm3, %xmm1
	psrlw	$1, %xmm0
	pand	%xmm3, %xmm0
	paddb	%xmm1, %xmm0
	movdqa	%xmm2, %xmm1
	psubb	%xmm0, %xmm1
	movups	%xmm1, (%r8,%rdx)
	addq	$16, %rdx
	cmpq	%r11, %rdx
	jne	.L245
	movl	%ebp, %ecx
	andl	$-16, %ecx
	andl	$15, %ebp
	leal	(%r9,%rcx), %eax
	je	.L196
	movl	%eax, %edx
	movslq	%ecx, %rcx
	movslq	%eax, %r8
	subl	%r10d, %edx
	movzbl	(%rsi,%rcx), %ecx
	movslq	%edx, %rdx
	movzbl	(%rsi,%rdx), %edx
	addl	%ecx, %edx
	movzbl	(%rsi,%r8), %ecx
	sarl	%edx
	subl	%edx, %ecx
	leal	1(%rax), %edx
	movb	%cl, (%rdi,%r8)
	cmpl	%edx, %ebx
	jle	.L196
	movl	%edx, %ecx
	movslq	%edx, %r8
	subl	%r10d, %edx
	subl	%r9d, %ecx
	movslq	%edx, %rdx
	movslq	%ecx, %rcx
	movzbl	(%rsi,%rdx), %edx
	movzbl	(%rsi,%rcx), %ecx
	addl	%ecx, %edx
	movzbl	(%rsi,%r8), %ecx
	sarl	%edx
	subl	%edx, %ecx
	leal	2(%rax), %edx
	movb	%cl, (%rdi,%r8)
	cmpl	%edx, %ebx
	jle	.L196
	movl	%edx, %ecx
	movslq	%edx, %r8
	subl	%r9d, %edx
	subl	%r10d, %ecx
	movslq	%edx, %rdx
	movslq	%ecx, %rcx
	movzbl	(%rsi,%rdx), %edx
	movzbl	(%rsi,%rcx), %ecx
	addl	%ecx, %edx
	movzbl	(%rsi,%r8), %ecx
	sarl	%edx
	subl	%edx, %ecx
	leal	3(%rax), %edx
	movb	%cl, (%rdi,%r8)
	cmpl	%edx, %ebx
	jle	.L196
	movl	%edx, %ecx
	movslq	%edx, %r8
	subl	%r9d, %edx
	subl	%r10d, %ecx
	movslq	%edx, %rdx
	movslq	%ecx, %rcx
	movzbl	(%rsi,%rdx), %edx
	movzbl	(%rsi,%rcx), %ecx
	addl	%ecx, %edx
	movzbl	(%rsi,%r8), %ecx
	sarl	%edx
	subl	%edx, %ecx
	leal	4(%rax), %edx
	movb	%cl, (%rdi,%r8)
	cmpl	%edx, %ebx
	jle	.L196
	movl	%edx, %ecx
	movslq	%edx, %r8
	subl	%r9d, %edx
	subl	%r10d, %ecx
	movslq	%edx, %rdx
	movslq	%ecx, %rcx
	movzbl	(%rsi,%rdx), %edx
	movzbl	(%rsi,%rcx), %ecx
	addl	%ecx, %edx
	movzbl	(%rsi,%r8), %ecx
	sarl	%edx
	subl	%edx, %ecx
	leal	5(%rax), %edx
	movb	%cl, (%rdi,%r8)
	cmpl	%edx, %ebx
	jle	.L196
	movl	%edx, %ecx
	movslq	%edx, %r8
	subl	%r10d, %edx
	subl	%r9d, %ecx
	movslq	%edx, %rdx
	movslq	%ecx, %rcx
	movzbl	(%rsi,%rdx), %edx
	movzbl	(%rsi,%rcx), %ecx
	addl	%ecx, %edx
	movzbl	(%rsi,%r8), %ecx
	sarl	%edx
	subl	%edx, %ecx
	leal	6(%rax), %edx
	movb	%cl, (%rdi,%r8)
	cmpl	%edx, %ebx
	jle	.L196
	movl	%edx, %ecx
	movslq	%edx, %r8
	subl	%r10d, %edx
	subl	%r9d, %ecx
	movslq	%edx, %rdx
	movslq	%ecx, %rcx
	movzbl	(%rsi,%rdx), %edx
	movzbl	(%rsi,%rcx), %ecx
	addl	%ecx, %edx
	movzbl	(%rsi,%r8), %ecx
	sarl	%edx
	subl	%edx, %ecx
	leal	7(%rax), %edx
	movb	%cl, (%rdi,%r8)
	cmpl	%edx, %ebx
	jle	.L196
	movl	%edx, %ecx
	movslq	%edx, %r8
	subl	%r10d, %edx
	subl	%r9d, %ecx
	movslq	%edx, %rdx
	movslq	%ecx, %rcx
	movzbl	(%rsi,%rdx), %edx
	movzbl	(%rsi,%rcx), %ecx
	addl	%ecx, %edx
	movzbl	(%rsi,%r8), %ecx
	sarl	%edx
	subl	%edx, %ecx
	leal	8(%rax), %edx
	movb	%cl, (%rdi,%r8)
	cmpl	%edx, %ebx
	jle	.L196
	movl	%edx, %ecx
	movslq	%edx, %r8
	subl	%r10d, %edx
	subl	%r9d, %ecx
	movslq	%edx, %rdx
	movslq	%ecx, %rcx
	movzbl	(%rsi,%rdx), %edx
	movzbl	(%rsi,%rcx), %ecx
	addl	%ecx, %edx
	movzbl	(%rsi,%r8), %ecx
	sarl	%edx
	subl	%edx, %ecx
	leal	9(%rax), %edx
	movb	%cl, (%rdi,%r8)
	cmpl	%edx, %ebx
	jle	.L196
	movl	%edx, %ecx
	movslq	%edx, %r8
	subl	%r10d, %edx
	subl	%r9d, %ecx
	movslq	%edx, %rdx
	movslq	%ecx, %rcx
	movzbl	(%rsi,%rdx), %edx
	movzbl	(%rsi,%rcx), %ecx
	addl	%ecx, %edx
	movzbl	(%rsi,%r8), %ecx
	sarl	%edx
	subl	%edx, %ecx
	leal	10(%rax), %edx
	movb	%cl, (%rdi,%r8)
	cmpl	%edx, %ebx
	jle	.L196
	movl	%edx, %ecx
	movslq	%edx, %r8
	subl	%r10d, %edx
	subl	%r9d, %ecx
	movslq	%edx, %rdx
	movslq	%ecx, %rcx
	movzbl	(%rsi,%rdx), %edx
	movzbl	(%rsi,%rcx), %ecx
	addl	%ecx, %edx
	movzbl	(%rsi,%r8), %ecx
	sarl	%edx
	subl	%edx, %ecx
	leal	11(%rax), %edx
	movb	%cl, (%rdi,%r8)
	cmpl	%edx, %ebx
	jle	.L196
	movl	%edx, %ecx
	movslq	%edx, %r8
	subl	%r10d, %edx
	subl	%r9d, %ecx
	movslq	%edx, %rdx
	movslq	%ecx, %rcx
	movzbl	(%rsi,%rdx), %edx
	movzbl	(%rsi,%rcx), %ecx
	addl	%ecx, %edx
	movzbl	(%rsi,%r8), %ecx
	sarl	%edx
	subl	%edx, %ecx
	leal	12(%rax), %edx
	movb	%cl, (%rdi,%r8)
	cmpl	%edx, %ebx
	jle	.L196
	movl	%edx, %ecx
	movslq	%edx, %r8
	subl	%r10d, %edx
	subl	%r9d, %ecx
	movslq	%edx, %rdx
	movslq	%ecx, %rcx
	movzbl	(%rsi,%rdx), %edx
	movzbl	(%rsi,%rcx), %ecx
	addl	%ecx, %edx
	movzbl	(%rsi,%r8), %ecx
	sarl	%edx
	subl	%edx, %ecx
	leal	13(%rax), %edx
	movb	%cl, (%rdi,%r8)
	cmpl	%edx, %ebx
	jle	.L196
	movl	%edx, %ecx
	movslq	%edx, %r8
	subl	%r10d, %edx
	addl	$14, %eax
	subl	%r9d, %ecx
	movslq	%edx, %rdx
	movslq	%ecx, %rcx
	movzbl	(%rsi,%rdx), %edx
	movzbl	(%rsi,%rcx), %ecx
	addl	%ecx, %edx
	movzbl	(%rsi,%r8), %ecx
	sarl	%edx
	subl	%edx, %ecx
	movb	%cl, (%rdi,%r8)
	cmpl	%eax, %ebx
	jle	.L196
	movl	%eax, %edx
	movslq	%eax, %rcx
	subl	%r10d, %eax
	subl	%r9d, %edx
	cltq
	movslq	%edx, %rdx
	movzbl	(%rsi,%rax), %eax
	movzbl	(%rsi,%rdx), %edx
	addl	%edx, %eax
	movzbl	(%rsi,%rcx), %edx
	sarl	%eax
	subl	%eax, %edx
	movb	%dl, (%rdi,%rcx)
	jmp	.L196
	.p2align 4,,10
	.p2align 3
.L215:
	imull	%r9d, %ebx
	cmpl	%ebx, %r9d
	jge	.L196
	movl	%ebx, %r10d
	subl	%r9d, %r10d
	leal	-1(%r10), %eax
	cmpl	$14, %eax
	movslq	%r9d, %rax
	jbe	.L259
	leaq	(%rdi,%rax), %rcx
	leaq	1(%rsi,%rax), %r8
	movq	%rcx, %rdx
	subq	%r8, %rdx
	cmpq	$14, %rdx
	jbe	.L259
	leaq	1(%rsi), %r8
	movq	%rcx, %rdx
	subq	%r8, %rdx
	cmpq	$14, %rdx
	jbe	.L259
	movl	%r10d, %r8d
	movdqa	.LC15(%rip), %xmm3
	addq	%rsi, %rax
	xorl	%edx, %edx
	shrl	$4, %r8d
	salq	$4, %r8
	.p2align 4,,10
	.p2align 3
.L260:
	movdqu	(%rsi,%rdx), %xmm0
	movdqu	(%rax,%rdx), %xmm1
	psrlw	$1, %xmm0
	pand	%xmm3, %xmm0
	psubb	%xmm0, %xmm1
	movups	%xmm1, (%rcx,%rdx)
	addq	$16, %rdx
	cmpq	%rdx, %r8
	jne	.L260
	movl	%r10d, %edx
	andl	$-16, %edx
	andl	$15, %r10d
	leal	(%r9,%rdx), %eax
	je	.L196
	movslq	%edx, %rdx
	movslq	%eax, %r8
	movzbl	(%rsi,%rdx), %ecx
	movzbl	(%rsi,%r8), %edx
	shrb	%cl
	subl	%ecx, %edx
	movb	%dl, (%rdi,%r8)
	leal	1(%rax), %edx
	cmpl	%edx, %ebx
	jle	.L196
	movslq	%edx, %r8
	subl	%r9d, %edx
	movslq	%edx, %rdx
	movzbl	(%rsi,%rdx), %ecx
	movzbl	(%rsi,%r8), %edx
	shrb	%cl
	subl	%ecx, %edx
	movb	%dl, (%rdi,%r8)
	leal	2(%rax), %edx
	cmpl	%edx, %ebx
	jle	.L196
	movslq	%edx, %r8
	subl	%r9d, %edx
	movslq	%edx, %rdx
	movzbl	(%rsi,%rdx), %ecx
	movzbl	(%rsi,%r8), %edx
	shrb	%cl
	subl	%ecx, %edx
	movb	%dl, (%rdi,%r8)
	leal	3(%rax), %edx
	cmpl	%edx, %ebx
	jle	.L196
	movslq	%edx, %r8
	subl	%r9d, %edx
	movslq	%edx, %rdx
	movzbl	(%rsi,%rdx), %ecx
	movzbl	(%rsi,%r8), %edx
	shrb	%cl
	subl	%ecx, %edx
	movb	%dl, (%rdi,%r8)
	leal	4(%rax), %edx
	cmpl	%edx, %ebx
	jle	.L196
	movslq	%edx, %r8
	subl	%r9d, %edx
	movslq	%edx, %rdx
	movzbl	(%rsi,%rdx), %ecx
	movzbl	(%rsi,%r8), %edx
	shrb	%cl
	subl	%ecx, %edx
	movb	%dl, (%rdi,%r8)
	leal	5(%rax), %edx
	cmpl	%edx, %ebx
	jle	.L196
	movslq	%edx, %r8
	subl	%r9d, %edx
	movslq	%edx, %rdx
	movzbl	(%rsi,%rdx), %ecx
	movzbl	(%rsi,%r8), %edx
	shrb	%cl
	subl	%ecx, %edx
	movb	%dl, (%rdi,%r8)
	leal	6(%rax), %edx
	cmpl	%edx, %ebx
	jle	.L196
	movslq	%edx, %r8
	subl	%r9d, %edx
	movslq	%edx, %rdx
	movzbl	(%rsi,%rdx), %ecx
	movzbl	(%rsi,%r8), %edx
	shrb	%cl
	subl	%ecx, %edx
	movb	%dl, (%rdi,%r8)
	leal	7(%rax), %edx
	cmpl	%edx, %ebx
	jle	.L196
	movslq	%edx, %r8
	subl	%r9d, %edx
	movslq	%edx, %rdx
	movzbl	(%rsi,%rdx), %ecx
	movzbl	(%rsi,%r8), %edx
	shrb	%cl
	subl	%ecx, %edx
	movb	%dl, (%rdi,%r8)
	leal	8(%rax), %edx
	cmpl	%edx, %ebx
	jle	.L196
	movslq	%edx, %r8
	subl	%r9d, %edx
	movslq	%edx, %rdx
	movzbl	(%rsi,%rdx), %ecx
	movzbl	(%rsi,%r8), %edx
	shrb	%cl
	subl	%ecx, %edx
	movb	%dl, (%rdi,%r8)
	leal	9(%rax), %edx
	cmpl	%edx, %ebx
	jle	.L196
	movslq	%edx, %r8
	subl	%r9d, %edx
	movslq	%edx, %rdx
	movzbl	(%rsi,%rdx), %ecx
	movzbl	(%rsi,%r8), %edx
	shrb	%cl
	subl	%ecx, %edx
	movb	%dl, (%rdi,%r8)
	leal	10(%rax), %edx
	cmpl	%edx, %ebx
	jle	.L196
	movslq	%edx, %r8
	subl	%r9d, %edx
	movslq	%edx, %rdx
	movzbl	(%rsi,%rdx), %ecx
	movzbl	(%rsi,%r8), %edx
	shrb	%cl
	subl	%ecx, %edx
	movb	%dl, (%rdi,%r8)
	leal	11(%rax), %edx
	cmpl	%edx, %ebx
	jle	.L196
	movslq	%edx, %r8
	subl	%r9d, %edx
	movslq	%edx, %rdx
	movzbl	(%rsi,%rdx), %ecx
	movzbl	(%rsi,%r8), %edx
	shrb	%cl
	subl	%ecx, %edx
	movb	%dl, (%rdi,%r8)
	leal	12(%rax), %edx
	cmpl	%edx, %ebx
	jle	.L196
	movslq	%edx, %r8
	subl	%r9d, %edx
	movslq	%edx, %rdx
	movzbl	(%rsi,%rdx), %ecx
	movzbl	(%rsi,%r8), %edx
	shrb	%cl
	subl	%ecx, %edx
	movb	%dl, (%rdi,%r8)
	leal	13(%rax), %edx
	cmpl	%edx, %ebx
	jle	.L196
	movslq	%edx, %r8
	subl	%r9d, %edx
	addl	$14, %eax
	movslq	%edx, %rdx
	movzbl	(%rsi,%rdx), %ecx
	movzbl	(%rsi,%r8), %edx
	shrb	%cl
	subl	%ecx, %edx
	movb	%dl, (%rdi,%r8)
	cmpl	%eax, %ebx
	jle	.L196
	movslq	%eax, %rcx
	subl	%r9d, %eax
	cltq
	movzbl	(%rsi,%rax), %edx
	movzbl	(%rsi,%rcx), %eax
	shrb	%dl
	subl	%edx, %eax
	movb	%al, (%rdi,%rcx)
	jmp	.L196
	.p2align 4,,10
	.p2align 3
.L250:
	negl	%r10d
	movq	%rsi, %r14
	movq	%rsi, %r15
	movslq	%r10d, %rdx
	subq	%rcx, %r14
	subq	%rax, %r15
	subq	%rax, %rdx
	addq	%rsi, %rdx
	jmp	.L258
	.p2align 4,,10
	.p2align 3
.L387:
	cmpl	%r8d, %r9d
	cmovge	%ebp, %r10d
.L257:
	subl	%r10d, %r11d
	movb	%r11b, (%rdi,%rax)
	addq	$1, %rax
	cmpl	%eax, -92(%rsp)
	jle	.L196
.L258:
	movzbl	(%r14,%rax), %r8d
	movzbl	(%r15,%rax), %ebx
	movzbl	(%rdx,%rax), %r9d
	movzbl	(%rsi,%rax), %r11d
	leal	(%rbx,%r8), %ecx
	movl	%r8d, %ebp
	movl	%ebx, %r12d
	subl	%r9d, %ecx
	movl	%r9d, %r10d
	movl	%ecx, %r13d
	subl	%r8d, %r13d
	movl	%r13d, %r8d
	negl	%r8d
	cmovs	%r13d, %r8d
	movl	%ecx, %r13d
	subl	%r9d, %r13d
	movl	%r13d, %r9d
	negl	%r9d
	cmovs	%r13d, %r9d
	movl	%r8d, %r13d
	cmpl	%r8d, %r9d
	cmovle	%r9d, %r13d
	subl	%ebx, %ecx
	movl	%ecx, %ebx
	negl	%ebx
	cmovs	%ecx, %ebx
	cmpl	%ebx, %r13d
	jl	.L387
	movl	%r12d, %r10d
	jmp	.L257
	.p2align 4,,10
	.p2align 3
.L259:
	movq	%rsi, %r8
	subq	%rax, %r8
	.p2align 4,,10
	.p2align 3
.L263:
	movzbl	(%r8,%rax), %ecx
	movzbl	(%rsi,%rax), %edx
	shrb	%cl
	subl	%ecx, %edx
	movb	%dl, (%rdi,%rax)
	addq	$1, %rax
	cmpl	%eax, %ebx
	jg	.L263
	jmp	.L196
	.p2align 4,,10
	.p2align 3
.L226:
	movq	%rsi, %rcx
	subq	%rax, %rcx
	.p2align 4,,10
	.p2align 3
.L233:
	movzbl	(%rsi,%rax), %edx
	subb	(%rcx,%rax), %dl
	movb	%dl, (%rdi,%rax)
	addq	$1, %rax
	cmpl	%eax, %ebx
	jg	.L233
	jmp	.L196
	.p2align 4,,10
	.p2align 3
.L235:
	movq	%rsi, %r8
	subq	%rcx, %r8
	.p2align 4,,10
	.p2align 3
.L242:
	movzbl	(%rsi,%rax), %edx
	subb	(%r8,%rax), %dl
	movb	%dl, (%rdi,%rax)
	addq	$1, %rax
	cmpl	%eax, %ebx
	jg	.L242
	jmp	.L196
	.p2align 4,,10
	.p2align 3
.L244:
	movq	%rsi, %r9
	movq	%rsi, %r8
	subq	%rax, %r9
	subq	%rcx, %r8
	.p2align 4,,10
	.p2align 3
.L248:
	movzbl	(%r8,%rax), %ecx
	movzbl	(%r9,%rax), %edx
	addl	%ecx, %edx
	movzbl	(%rsi,%rax), %ecx
	sarl	%edx
	subl	%edx, %ecx
	movb	%cl, (%rdi,%rax)
	addq	$1, %rax
	cmpl	%eax, %ebx
	jg	.L248
	jmp	.L196
.L385:
	cmpl	$14, %edx
	jbe	.L278
	movl	%ecx, %r10d
	leaq	(%rsi,%rax), %r11
	xorl	%edx, %edx
	shrl	$4, %r10d
	salq	$4, %r10
	.p2align 4,,10
	.p2align 3
.L267:
	movdqu	(%r11,%rdx), %xmm0
	movdqu	(%rsi,%rdx), %xmm5
	psubb	%xmm5, %xmm0
	movups	%xmm0, (%r8,%rdx)
	addq	$16, %rdx
	cmpq	%rdx, %r10
	jne	.L267
	jmp	.L384
.L278:
	movl	%r9d, %edx
	xorl	%r8d, %r8d
	jmp	.L266
.L276:
	xorl	%edx, %edx
	leaq	(%rsi,%rbp), %rcx
	jmp	.L236
	.cfi_endproc
.LFE796:
	.size	stbiw__encode_png_line, .-stbiw__encode_png_line
	.section	.rodata.str1.1
.LC16:
	.string	"stb_image.h"
	.section	.rodata.str1.8,"aMS",@progbits,1
	.align 8
.LC17:
	.string	"req_comp >= 1 && req_comp <= 4"
	.section	.rodata.str1.1
.LC18:
	.string	"outofmem"
	.text
	.p2align 4
	.type	stbi__convert_format16, @function
stbi__convert_format16:
.LFB610:
	.cfi_startproc
	pushq	%r15
	.cfi_def_cfa_offset 16
	.cfi_offset 15, -16
	movq	%rdi, %r15
	pushq	%r14
	.cfi_def_cfa_offset 24
	.cfi_offset 14, -24
	pushq	%r13
	.cfi_def_cfa_offset 32
	.cfi_offset 13, -32
	pushq	%r12
	.cfi_def_cfa_offset 40
	.cfi_offset 12, -40
	pushq	%rbp
	.cfi_def_cfa_offset 48
	.cfi_offset 6, -48
	pushq	%rbx
	.cfi_def_cfa_offset 56
	.cfi_offset 3, -56
	subq	$328, %rsp
	.cfi_def_cfa_offset 384
	movl	%r8d, 8(%rsp)
	cmpl	%esi, %edx
	je	.L475
	leal	-1(%rdx), %eax
	cmpl	$3, %eax
	ja	.L621
	movl	%r8d, %eax
	movl	%edx, 12(%rsp)
	movl	%esi, %ebp
	movl	%ecx, %r12d
	imull	%ecx, %eax
	movl	%r8d, %ebx
	imull	%edx, %eax
	leal	(%rax,%rax), %edi
	call	malloc@PLT
	movq	%rax, 80(%rsp)
	testq	%rax, %rax
	je	.L391
	testl	%ebx, %ebx
	movl	12(%rsp), %r9d
	jle	.L412
	movl	%ebp, %eax
	leal	-1(%r12), %ebx
	movl	$1, %r11d
	movl	$0, 12(%rsp)
	imull	%r12d, %eax
	movl	%ebx, %ecx
	movl	%ebx, %esi
	movl	%ebx, 36(%rsp)
	leal	-10(%r9,%rbp,8), %r10d
	movl	$0, 16(%rsp)
	movl	%eax, 32(%rsp)
	movl	%r9d, %eax
	imull	%r12d, %eax
	movl	%eax, 20(%rsp)
	leal	-2(%r12), %eax
	cmpl	$-1, %eax
	cmovge	%r12d, %r11d
	setl	%dil
	cmpl	$1, %ebx
	setbe	%al
	leal	-1(%r11), %r13d
	orl	%edi, %eax
	movl	%r11d, %edx
	movl	%r11d, 40(%rsp)
	movb	%al, 211(%rsp)
	movl	%r13d, %eax
	movl	%r13d, %ebp
	shrl	%eax
	salq	$4, %rax
	movq	%rax, 176(%rsp)
	movl	%r13d, %eax
	andl	$-2, %eax
	subl	%eax, %ecx
	movl	%ecx, 212(%rsp)
	leaq	0(,%rax,8), %rcx
	leaq	(%rax,%rax,2), %rax
	addq	%rax, %rax
	cmpl	$6, %ebx
	movq	%rcx, 216(%rsp)
	movq	%rax, 224(%rsp)
	setbe	%al
	shrl	$3, %edx
	orl	%edi, %eax
	movb	%al, 75(%rsp)
	movq	%rdx, %rax
	salq	$6, %rax
	movq	%rax, 88(%rsp)
	movl	%r11d, %eax
	andl	$-8, %eax
	leaq	0(,%rax,8), %rcx
	subl	%eax, %esi
	cmpl	$7, %ebx
	movl	%eax, 44(%rsp)
	movq	%rcx, 48(%rsp)
	leaq	0(,%rax,4), %rcx
	movq	%rcx, 56(%rsp)
	setbe	%cl
	orl	%edi, %ecx
	movl	%esi, 76(%rsp)
	movl	%ebx, %esi
	movb	%cl, 99(%rsp)
	movl	%r13d, %ecx
	shrl	$3, %ecx
	movq	%rcx, %rbx
	salq	$6, %rbx
	movq	%rbx, 200(%rsp)
	movl	%r13d, %ebx
	andl	$-8, %ebx
	subl	%ebx, %esi
	movl	%esi, 100(%rsp)
	movl	%ebx, %esi
	leaq	0(,%rsi,8), %r8
	movq	%r8, 184(%rsp)
	leaq	(%rsi,%rsi), %r8
	movq	%r8, 104(%rsp)
	leaq	(%rax,%rax), %r8
	addq	%r8, %rax
	movq	%r8, 232(%rsp)
	addq	%rax, %rax
	movq	%rax, 240(%rsp)
	movq	%rdx, %rax
	salq	$5, %rax
	cmpl	$1, %r12d
	movq	%rax, 192(%rsp)
	sete	%al
	salq	$4, %rdx
	xorl	%r14d, %r14d
	orl	%edi, %eax
	movq	%rdx, %r13
	movb	%al, 299(%rsp)
	movl	%r11d, %eax
	shrl	%eax
	leaq	0(,%rax,8), %rdi
	salq	$2, %rax
	movq	%rdi, 168(%rsp)
	movl	%r11d, %edi
	andl	$-2, %edi
	movq	%rax, 272(%rsp)
	movl	%r10d, %eax
	leaq	0(,%rdi,4), %r11
	movq	%r11, 248(%rsp)
	leaq	(%rdi,%rdi), %r11
	addq	%r11, %rdi
	movq	%r11, 256(%rsp)
	movl	%ebx, %r11d
	addq	%rdi, %rdi
	movq	%rdi, 120(%rsp)
	movq	%rcx, %rdi
	leaq	0(,%rsi,4), %rcx
	movq	%rcx, 160(%rsp)
	salq	$4, %rdi
	movq	%r10, %rcx
	movq	%r15, 24(%rsp)
	movq	80(%rsp), %r15
	movq	%rdi, %r12
.L474:
	movl	16(%rsp), %r10d
	movq	24(%rsp), %rbx
	leaq	(%rbx,%r10,2), %rbx
	movq	%rbx, 112(%rsp)
	movl	12(%rsp), %ebx
	leaq	(%rbx,%rbx), %rsi
	leaq	(%r15,%rsi), %r9
	cmpl	$25, %eax
	ja	.L393
	leaq	.L395(%rip), %rdi
	movslq	(%rdi,%rcx,4), %rdx
	addq	%rdi, %rdx
	jmp	*%rdx
	.section	.rodata
	.align 4
	.align 4
.L395:
	.long	.L525-.L395
	.long	.L526-.L395
	.long	.L580-.L395
	.long	.L393-.L395
	.long	.L393-.L395
	.long	.L393-.L395
	.long	.L393-.L395
	.long	.L581-.L395
	.long	.L393-.L395
	.long	.L529-.L395
	.long	.L530-.L395
	.long	.L393-.L395
	.long	.L393-.L395
	.long	.L393-.L395
	.long	.L393-.L395
	.long	.L582-.L395
	.long	.L583-.L395
	.long	.L393-.L395
	.long	.L533-.L395
	.long	.L393-.L395
	.long	.L393-.L395
	.long	.L393-.L395
	.long	.L393-.L395
	.long	.L534-.L395
	.long	.L535-.L395
	.long	.L584-.L395
	.text
	.p2align 4,,10
	.p2align 3
.L593:
	movl	%r8d, 12(%rsp)
	movq	64(%rsp), %r12
	movl	%esi, %ebp
	movl	%r10d, 16(%rsp)
	movq	112(%rsp), %r13
	movl	128(%rsp), %r11d
	movl	136(%rsp), %eax
	.p2align 4,,10
	.p2align 3
.L407:
	movl	8(%rsp), %ebx
	addl	$1, %r14d
	movl	32(%rsp), %edi
	addl	%edi, 16(%rsp)
	movl	20(%rsp), %edi
	addl	%edi, 12(%rsp)
	cmpl	%ebx, %r14d
	jne	.L474
.L611:
	movq	24(%rsp), %r15
.L412:
	movq	%r15, %rdi
	call	free@PLT
.L388:
	movq	80(%rsp), %rax
	addq	$328, %rsp
	.cfi_remember_state
	.cfi_def_cfa_offset 56
	popq	%rbx
	.cfi_def_cfa_offset 48
	popq	%rbp
	.cfi_def_cfa_offset 40
	popq	%r12
	.cfi_def_cfa_offset 32
	popq	%r13
	.cfi_def_cfa_offset 24
	popq	%r14
	.cfi_def_cfa_offset 16
	popq	%r15
	.cfi_def_cfa_offset 8
	ret
	.p2align 4,,10
	.p2align 3
.L475:
	.cfi_restore_state
	movq	%rdi, 80(%rsp)
	jmp	.L388
	.p2align 4,,10
	.p2align 3
.L393:
	leaq	__PRETTY_FUNCTION__.42(%rip), %rcx
	movl	$1847, %edx
	leaq	.LC16(%rip), %rsi
	leaq	.LC11(%rip), %rdi
	call	__assert_fail@PLT
.L535:
	movq	%r13, 128(%rsp)
	movl	40(%rsp), %r8d
	pxor	%xmm8, %xmm8
	movl	36(%rsp), %r13d
	movl	%r11d, 136(%rsp)
	movl	%ebp, 144(%rsp)
	movl	12(%rsp), %edi
	andl	$7, %r8d
	movl	%eax, 152(%rsp)
	movdqa	.LC20(%rip), %xmm7
	movq	112(%rsp), %rax
	movq	%r12, 64(%rsp)
	movl	16(%rsp), %r11d
	movq	24(%rsp), %rbp
	movq	%rcx, 112(%rsp)
	movdqa	.LC21(%rip), %xmm6
	movdqa	.LC22(%rip), %xmm5
	testl	%r13d, %r13d
	js	.L595
	.p2align 4,,10
	.p2align 3
.L622:
	cmpb	$0, 75(%rsp)
	jne	.L481
	movq	88(%rsp), %rsi
	movq	%rax, %rdx
	movq	%r9, %rcx
	addq	%rax, %rsi
	.p2align 4,,10
	.p2align 3
.L461:
	movdqu	(%rdx), %xmm9
	movdqu	16(%rdx), %xmm3
	addq	$64, %rdx
	addq	$32, %rcx
	movdqu	-32(%rdx), %xmm0
	movdqu	-16(%rdx), %xmm4
	movdqa	%xmm9, %xmm2
	movdqa	%xmm9, %xmm1
	punpcklwd	%xmm3, %xmm9
	punpcklwd	%xmm3, %xmm2
	punpckhwd	%xmm3, %xmm1
	movdqa	%xmm0, %xmm3
	movdqa	%xmm2, %xmm10
	punpcklwd	%xmm1, %xmm9
	punpcklwd	%xmm1, %xmm2
	punpckhwd	%xmm1, %xmm10
	movdqa	%xmm0, %xmm1
	punpckhwd	%xmm4, %xmm3
	punpcklwd	%xmm4, %xmm1
	punpcklwd	%xmm10, %xmm2
	punpckhwd	%xmm10, %xmm9
	movdqa	%xmm1, %xmm10
	punpcklwd	%xmm3, %xmm1
	punpcklwd	%xmm4, %xmm0
	punpckhwd	%xmm3, %xmm10
	movdqa	%xmm2, %xmm4
	punpcklwd	%xmm3, %xmm0
	punpcklwd	%xmm10, %xmm1
	movdqa	%xmm2, %xmm3
	punpckhwd	%xmm10, %xmm0
	punpcklwd	%xmm1, %xmm4
	punpckhwd	%xmm1, %xmm3
	punpcklwd	%xmm1, %xmm2
	movdqa	%xmm4, %xmm10
	punpcklwd	%xmm3, %xmm2
	punpcklwd	%xmm3, %xmm4
	punpckhwd	%xmm3, %xmm10
	movdqa	%xmm9, %xmm3
	movdqa	%xmm9, %xmm1
	punpcklwd	%xmm0, %xmm3
	punpckhwd	%xmm0, %xmm1
	punpcklwd	%xmm10, %xmm4
	punpckhwd	%xmm10, %xmm2
	movdqa	%xmm3, %xmm10
	punpcklwd	%xmm0, %xmm9
	punpckhwd	%xmm1, %xmm10
	punpcklwd	%xmm1, %xmm3
	punpcklwd	%xmm1, %xmm9
	punpcklwd	%xmm10, %xmm3
	punpckhwd	%xmm10, %xmm9
	movdqa	%xmm4, %xmm10
	pmullw	%xmm7, %xmm10
	pmulhuw	%xmm7, %xmm4
	movdqa	%xmm3, %xmm1
	pmullw	%xmm6, %xmm1
	pmulhuw	%xmm6, %xmm3
	movdqa	%xmm10, %xmm11
	punpckhwd	%xmm4, %xmm10
	movdqa	%xmm1, %xmm0
	punpcklwd	%xmm4, %xmm11
	punpckhwd	%xmm3, %xmm1
	punpcklwd	%xmm3, %xmm0
	paddd	%xmm10, %xmm1
	paddd	%xmm11, %xmm0
	movdqa	%xmm2, %xmm11
	pmullw	%xmm5, %xmm11
	pmulhuw	%xmm5, %xmm2
	movdqa	%xmm11, %xmm12
	punpckhwd	%xmm2, %xmm11
	punpcklwd	%xmm2, %xmm12
	paddd	%xmm11, %xmm1
	paddd	%xmm12, %xmm0
	psrad	$8, %xmm1
	psrad	$8, %xmm0
	movdqa	%xmm0, %xmm2
	punpcklwd	%xmm1, %xmm0
	punpckhwd	%xmm1, %xmm2
	movdqa	%xmm0, %xmm1
	punpckhwd	%xmm2, %xmm1
	punpcklwd	%xmm2, %xmm0
	punpcklwd	%xmm1, %xmm0
	movdqa	%xmm0, %xmm1
	punpckhwd	%xmm9, %xmm0
	punpcklwd	%xmm9, %xmm1
	movups	%xmm0, -16(%rcx)
	movups	%xmm1, -32(%rcx)
	cmpq	%rdx, %rsi
	jne	.L461
	movq	48(%rsp), %rcx
	addq	%rcx, %rax
	movq	56(%rsp), %rcx
	addq	%rcx, %r9
	testl	%r8d, %r8d
	je	.L464
	movl	44(%rsp), %ecx
	movl	76(%rsp), %esi
.L460:
	movl	40(%rsp), %edx
	subl	%ecx, %edx
	leal	-1(%rdx), %r12d
	cmpl	$2, %r12d
	jbe	.L465
	leaq	(%r10,%rcx,4), %r10
	leaq	(%rbx,%rcx,2), %rcx
	leaq	0(%rbp,%r10,2), %r10
	leaq	(%r15,%rcx,2), %rcx
	movq	(%r10), %xmm2
	movq	8(%r10), %xmm1
	movq	16(%r10), %xmm0
	movq	24(%r10), %xmm4
	movdqa	%xmm2, %xmm9
	movdqa	%xmm2, %xmm3
	punpcklwd	%xmm1, %xmm2
	punpcklwd	%xmm1, %xmm9
	punpcklwd	%xmm1, %xmm3
	movdqa	%xmm0, %xmm1
	pshufd	$78, %xmm9, %xmm9
	punpcklwd	%xmm4, %xmm1
	punpcklwd	%xmm9, %xmm3
	punpcklwd	%xmm9, %xmm2
	movdqa	%xmm0, %xmm9
	punpcklwd	%xmm4, %xmm9
	punpcklwd	%xmm4, %xmm0
	movdqa	%xmm3, %xmm4
	pshufd	$78, %xmm9, %xmm9
	pshufd	$78, %xmm2, %xmm2
	punpcklwd	%xmm9, %xmm1
	punpcklwd	%xmm9, %xmm0
	movdqa	%xmm3, %xmm9
	punpcklwd	%xmm1, %xmm4
	pshufd	$78, %xmm0, %xmm0
	punpcklwd	%xmm1, %xmm9
	pshufd	$78, %xmm4, %xmm4
	punpcklwd	%xmm1, %xmm3
	movdqa	%xmm2, %xmm1
	punpcklwd	%xmm4, %xmm9
	punpcklwd	%xmm4, %xmm3
	punpcklwd	%xmm0, %xmm1
	movdqa	%xmm2, %xmm4
	pshufd	$78, %xmm1, %xmm1
	movdqa	%xmm9, %xmm11
	punpcklwd	%xmm0, %xmm4
	punpcklwd	%xmm8, %xmm11
	punpcklwd	%xmm0, %xmm2
	punpcklwd	%xmm1, %xmm4
	pshufd	$78, %xmm3, %xmm3
	punpcklwd	%xmm1, %xmm2
	movdqa	%xmm4, %xmm12
	punpcklwd	%xmm8, %xmm4
	movdqa	%xmm3, %xmm1
	pshufd	$78, %xmm4, %xmm4
	punpcklwd	%xmm8, %xmm12
	punpcklwd	%xmm8, %xmm1
	movdqa	%xmm4, %xmm0
	pslld	$2, %xmm4
	movdqa	%xmm12, %xmm10
	paddd	%xmm0, %xmm4
	movdqa	%xmm11, %xmm0
	punpcklwd	%xmm8, %xmm9
	pslld	$2, %xmm0
	pslld	$2, %xmm10
	pshufd	$78, %xmm9, %xmm9
	paddd	%xmm11, %xmm0
	paddd	%xmm12, %xmm10
	punpcklwd	%xmm8, %xmm3
	pshufd	$78, %xmm3, %xmm3
	pshufd	$78, %xmm2, %xmm2
	pslld	$2, %xmm0
	psubd	%xmm11, %xmm0
	pslld	$2, %xmm0
	paddd	%xmm11, %xmm0
	movdqa	%xmm10, %xmm11
	pslld	$4, %xmm11
	psubd	%xmm10, %xmm11
	movdqa	%xmm1, %xmm10
	pslld	$3, %xmm10
	psubd	%xmm1, %xmm10
	pslld	$1, %xmm11
	paddd	%xmm11, %xmm0
	pslld	$2, %xmm10
	paddd	%xmm10, %xmm1
	paddd	%xmm1, %xmm0
	movdqa	%xmm9, %xmm1
	pslld	$2, %xmm1
	paddd	%xmm9, %xmm1
	psrad	$8, %xmm0
	pslld	$2, %xmm1
	psubd	%xmm9, %xmm1
	pslld	$2, %xmm1
	paddd	%xmm9, %xmm1
	movdqa	%xmm4, %xmm9
	pslld	$4, %xmm9
	psubd	%xmm4, %xmm9
	movdqa	%xmm3, %xmm4
	pslld	$3, %xmm4
	psubd	%xmm3, %xmm4
	pslld	$1, %xmm9
	paddd	%xmm9, %xmm1
	pslld	$2, %xmm4
	paddd	%xmm4, %xmm3
	paddd	%xmm3, %xmm1
	movdqa	%xmm0, %xmm3
	psrad	$8, %xmm1
	punpcklwd	%xmm1, %xmm3
	punpcklwd	%xmm1, %xmm0
	pshufd	$78, %xmm3, %xmm3
	punpcklwd	%xmm3, %xmm0
	movdqa	%xmm0, %xmm1
	punpcklwd	%xmm2, %xmm0
	punpcklwd	%xmm2, %xmm1
	pshufd	$78, %xmm0, %xmm0
	movq	%xmm1, (%rcx)
	movq	%xmm0, 8(%rcx)
	testb	$3, %dl
	je	.L464
	andl	$-4, %edx
	subl	%edx, %esi
	leaq	(%rax,%rdx,8), %rax
	leaq	(%r9,%rdx,4), %r9
.L465:
	movzwl	(%rax), %edx
	movzwl	2(%rax), %ecx
	imull	$77, %edx, %edx
	imull	$150, %ecx, %ecx
	addl	%ecx, %edx
	movzwl	4(%rax), %ecx
	imull	$29, %ecx, %ecx
	addl	%ecx, %edx
	sarl	$8, %edx
	movw	%dx, (%r9)
	movzwl	6(%rax), %edx
	movw	%dx, 2(%r9)
	testl	%esi, %esi
	je	.L464
	movzwl	10(%rax), %edx
	movzwl	8(%rax), %ecx
	imull	$150, %edx, %edx
	imull	$77, %ecx, %ecx
	addl	%ecx, %edx
	movzwl	12(%rax), %ecx
	imull	$29, %ecx, %ecx
	addl	%ecx, %edx
	movzwl	14(%rax), %ecx
	sarl	$8, %edx
	movzwl	%dx, %edx
	sall	$16, %ecx
	orl	%edx, %ecx
	movl	%ecx, 4(%r9)
	cmpl	$1, %esi
	je	.L464
	movzwl	16(%rax), %edx
	movzwl	18(%rax), %ecx
	imull	$77, %edx, %edx
	imull	$150, %ecx, %ecx
	addl	%ecx, %edx
	movzwl	20(%rax), %ecx
	movzwl	22(%rax), %eax
	imull	$29, %ecx, %ecx
	sall	$16, %eax
	addl	%ecx, %edx
	sarl	$8, %edx
	movzwl	%dx, %edx
	orl	%edx, %eax
	movl	%eax, 8(%r9)
.L464:
	movl	32(%rsp), %eax
	addl	$1, %r14d
	addl	%eax, %r11d
	movl	20(%rsp), %eax
	addl	%eax, %edi
	cmpl	%r14d, 8(%rsp)
	je	.L612
	movl	%r11d, %r10d
	movl	%edi, %ebx
	leaq	0(%rbp,%r10,2), %rax
	leaq	(%r15,%rbx,2), %r9
	testl	%r13d, %r13d
	jns	.L622
.L595:
	movq	64(%rsp), %r12
	movl	%r11d, 16(%rsp)
	movl	144(%rsp), %ebp
	movl	%edi, 12(%rsp)
	movq	128(%rsp), %r13
	movl	136(%rsp), %r11d
	movl	152(%rsp), %eax
	movq	112(%rsp), %rcx
	jmp	.L407
.L533:
	movl	40(%rsp), %edi
	movl	%ebp, 304(%rsp)
	movl	36(%rsp), %ebp
	movl	%r11d, 300(%rsp)
	movq	%r10, %r11
	andl	$7, %edi
	movl	%r14d, 64(%rsp)
	movq	112(%rsp), %r8
	movl	%edi, 264(%rsp)
	movq	%r12, 280(%rsp)
	movq	%r13, 288(%rsp)
	movl	%eax, 308(%rsp)
	movq	%rcx, 312(%rsp)
	testl	%ebp, %ebp
	js	.L591
	.p2align 4,,10
	.p2align 3
.L623:
	cmpb	$0, 75(%rsp)
	jne	.L479
	movq	88(%rsp), %rdi
	movq	%r9, 112(%rsp)
	movq	%r8, %rdx
	movq	%r9, %rax
	movq	%r8, 128(%rsp)
	leaq	6(%r15,%rsi), %rcx
	movq	%r11, 136(%rsp)
	leaq	(%rdi,%r9), %r14
	movq	%rbx, 144(%rsp)
	movq	%r15, 152(%rsp)
	.p2align 4,,10
	.p2align 3
.L443:
	movzwl	32(%rdx), %esi
	movzwl	30(%rdx), %edi
	addq	$64, %rax
	addq	$48, %rdx
	movzwl	-38(%rdx), %r12d
	movzwl	-44(%rdx), %r13d
	addq	$64, %rcx
	movzwl	-2(%rdx), %r8d
	movzwl	-8(%rdx), %r9d
	sall	$16, %esi
	movzwl	-14(%rdx), %r10d
	movl	-48(%rdx), %r15d
	orl	%edi, %esi
	movl	$-1, %edi
	movd	-42(%rdx), %xmm5
	movd	-36(%rdx), %xmm4
	movzwl	-20(%rdx), %r11d
	movd	-24(%rdx), %xmm2
	movzwl	-26(%rdx), %ebx
	movd	-30(%rdx), %xmm3
	movzwl	-32(%rdx), %ebp
	movd	-6(%rdx), %xmm0
	movd	-12(%rdx), %xmm1
	movl	%r15d, -64(%rax)
	movl	$-1, %r15d
	movw	%r13w, -60(%rax)
	movl	$-1, %r13d
	movw	%r12w, -52(%rax)
	movl	$-1, %r12d
	movl	%esi, -24(%rax)
	movl	$-1, %esi
	movw	%r10w, -20(%rax)
	movl	$-1, %r10d
	movw	%r9w, -12(%rax)
	movl	$-1, %r9d
	movd	%xmm5, -56(%rax)
	movd	%xmm4, -48(%rax)
	movw	%bp, -44(%rax)
	movd	%xmm3, -40(%rax)
	movw	%bx, -36(%rax)
	movd	%xmm2, -32(%rax)
	movw	%r11w, -28(%rax)
	movd	%xmm1, -16(%rax)
	movd	%xmm0, -8(%rax)
	movw	%r8w, -4(%rax)
	movl	$-1, %r8d
	movw	%r12w, -64(%rcx)
	movw	%r13w, -56(%rcx)
	movw	%r15w, -48(%rcx)
	movw	%si, -40(%rcx)
	movw	%di, -32(%rcx)
	movw	%r8w, -24(%rcx)
	movw	%r9w, -16(%rcx)
	movw	%r10w, -8(%rcx)
	cmpq	%r14, %rax
	jne	.L443
	movq	240(%rsp), %rax
	movq	128(%rsp), %r8
	movq	112(%rsp), %r9
	movl	264(%rsp), %ebp
	addq	%rax, %r8
	movq	48(%rsp), %rax
	movq	136(%rsp), %r11
	movq	144(%rsp), %rbx
	movq	152(%rsp), %r15
	addq	%rax, %r9
	testl	%ebp, %ebp
	je	.L446
	movl	44(%rsp), %eax
	movl	76(%rsp), %edi
.L442:
	movl	40(%rsp), %ecx
	subl	%eax, %ecx
	leal	-1(%rcx), %edx
	cmpl	$2, %edx
	jbe	.L447
	movq	24(%rsp), %rsi
	leaq	(%rax,%rax,2), %rdx
	addq	%r11, %rdx
	leaq	(%rsi,%rdx,2), %rdx
	leaq	(%rbx,%rax,4), %rsi
	movzwl	22(%rdx), %r10d
	movzwl	4(%rdx), %r14d
	addq	%rsi, %rsi
	movzwl	10(%rdx), %r12d
	movl	6(%rdx), %r13d
	leaq	(%r15,%rsi), %rax
	leaq	6(%r15,%rsi), %rsi
	movl	18(%rdx), %r11d
	movzwl	16(%rdx), %ebx
	movl	12(%rdx), %ebp
	movl	(%rdx), %edx
	movw	%r10w, 28(%rax)
	movl	$-1, %r10d
	movw	%r14w, 4(%rax)
	movl	%edx, (%rax)
	movl	$-1, %edx
	movl	%r13d, 8(%rax)
	movw	%r12w, 12(%rax)
	movl	%ebp, 16(%rax)
	movw	%bx, 20(%rax)
	movl	%r11d, 24(%rax)
	movl	$-1, %eax
	movw	%ax, (%rsi)
	movl	$-1, %eax
	movw	%ax, 8(%rsi)
	movw	%dx, 16(%rsi)
	movw	%r10w, 24(%rsi)
	testb	$3, %cl
	je	.L446
	andl	$-4, %ecx
	leaq	(%rcx,%rcx,2), %rax
	subl	%ecx, %edi
	leaq	(%r9,%rcx,8), %r9
	leaq	(%r8,%rax,2), %r8
.L447:
	movzwl	(%r8), %eax
	movw	%ax, (%r9)
	movzwl	2(%r8), %eax
	movw	%ax, 2(%r9)
	movzwl	4(%r8), %eax
	movw	%ax, 4(%r9)
	movl	$-1, %eax
	movw	%ax, 6(%r9)
	testl	%edi, %edi
	je	.L446
	movl	6(%r8), %eax
	movl	%eax, 8(%r9)
	movzwl	10(%r8), %eax
	movw	%ax, 12(%r9)
	movl	$-1, %eax
	movw	%ax, 14(%r9)
	cmpl	$1, %edi
	je	.L446
	movl	12(%r8), %eax
	movl	%eax, 16(%r9)
	movzwl	16(%r8), %eax
	movw	%ax, 20(%r9)
	movl	$-1, %eax
	movw	%ax, 22(%r9)
.L446:
	movl	32(%rsp), %edi
	addl	$1, 64(%rsp)
	addl	%edi, 16(%rsp)
	movl	64(%rsp), %eax
	movl	20(%rsp), %edi
	addl	%edi, 12(%rsp)
	cmpl	%eax, 8(%rsp)
	je	.L611
	movl	12(%rsp), %ebx
	movl	16(%rsp), %r11d
	movq	24(%rsp), %rax
	movl	36(%rsp), %ebp
	leaq	(%rbx,%rbx), %rsi
	leaq	(%rax,%r11,2), %r8
	leaq	(%r15,%rsi), %r9
	testl	%ebp, %ebp
	jns	.L623
.L591:
	movl	64(%rsp), %r14d
	movq	280(%rsp), %r12
	movq	288(%rsp), %r13
	movl	300(%rsp), %r11d
	movl	304(%rsp), %ebp
	movl	308(%rsp), %eax
	movq	312(%rsp), %rcx
	jmp	.L407
.L529:
	movl	40(%rsp), %r8d
	movl	36(%rsp), %ebx
	movq	%r12, 64(%rsp)
	movl	%r11d, 128(%rsp)
	movq	112(%rsp), %rsi
	movl	%ebp, 136(%rsp)
	movl	12(%rsp), %r10d
	andl	$1, %r8d
	movl	20(%rsp), %r12d
	movl	16(%rsp), %r11d
	movq	%r13, 112(%rsp)
	movl	%eax, 144(%rsp)
	movl	32(%rsp), %r13d
	movq	%rcx, 152(%rsp)
	movzbl	299(%rsp), %ebp
	testl	%ebx, %ebx
	js	.L589
	.p2align 4,,10
	.p2align 3
.L624:
	testb	%bpl, %bpl
	jne	.L430
	movq	168(%rsp), %rdi
	movq	%rsi, %rdx
	movq	%r9, %rax
	addq	%rsi, %rdi
	.p2align 4,,10
	.p2align 3
.L431:
	movzwl	(%rdx), %ecx
	addq	$8, %rdx
	addq	$12, %rax
	movd	%ecx, %xmm0
	movzwl	-4(%rdx), %ecx
	pshuflw	$224, %xmm0, %xmm1
	movd	%ecx, %xmm5
	pinsrw	$1, %ecx, %xmm0
	movd	%xmm1, -12(%rax)
	movd	%xmm0, -8(%rax)
	pshuflw	$0, %xmm5, %xmm0
	movd	%xmm0, -4(%rax)
	cmpq	%rdx, %rdi
	jne	.L431
	testl	%r8d, %r8d
	je	.L434
	movq	248(%rsp), %rax
	addq	%rax, %rsi
	movq	120(%rsp), %rax
	addq	%rax, %r9
.L430:
	movzwl	(%rsi), %eax
	movd	%eax, %xmm6
	movw	%ax, 4(%r9)
	pshuflw	$0, %xmm6, %xmm0
	movd	%xmm0, (%r9)
.L434:
	addl	$1, %r14d
	addl	%r13d, %r11d
	addl	%r12d, %r10d
	cmpl	%r14d, 8(%rsp)
	je	.L611
	movq	24(%rsp), %rcx
	movl	%r11d, %eax
	leaq	(%rcx,%rax,2), %rsi
	movl	%r10d, %eax
	leaq	(%r15,%rax,2), %r9
	testl	%ebx, %ebx
	jns	.L624
.L589:
	movq	64(%rsp), %r12
	movq	112(%rsp), %r13
	movl	%r11d, 16(%rsp)
	movl	%r10d, 12(%rsp)
	movl	128(%rsp), %r11d
	movl	136(%rsp), %ebp
	movl	144(%rsp), %eax
	movq	152(%rsp), %rcx
	jmp	.L407
.L582:
	movl	%eax, 136(%rsp)
	movq	112(%rsp), %rdx
	movl	%ebp, %esi
	movl	12(%rsp), %r8d
	movl	16(%rsp), %r10d
	movq	%r12, 64(%rsp)
	movl	20(%rsp), %ebx
	movl	32(%rsp), %ebp
	movq	%r13, 112(%rsp)
	movl	%r11d, 128(%rsp)
	movq	24(%rsp), %r13
	movl	36(%rsp), %r11d
	movl	8(%rsp), %r12d
	.p2align 4,,10
	.p2align 3
.L400:
	testl	%r11d, %r11d
	js	.L593
	movl	%r14d, 12(%rsp)
	movl	%r11d, %edi
	.p2align 4,,10
	.p2align 3
.L449:
	movzwl	(%rdx), %eax
	movzwl	2(%rdx), %r14d
	subl	$1, %edi
	addq	$6, %rdx
	addq	$2, %r9
	imull	$150, %r14d, %r14d
	imull	$77, %eax, %eax
	addl	%r14d, %eax
	movzwl	-2(%rdx), %r14d
	imull	$29, %r14d, %r14d
	addl	%r14d, %eax
	sarl	$8, %eax
	movw	%ax, -2(%r9)
	cmpl	$-1, %edi
	jne	.L449
	movl	12(%rsp), %r14d
	addl	%ebp, %r10d
	addl	%ebx, %r8d
	addl	$1, %r14d
	cmpl	%r12d, %r14d
	je	.L606
	movl	%r10d, %eax
	leaq	0(%r13,%rax,2), %rdx
	movl	%r8d, %eax
	leaq	(%r15,%rax,2), %r9
	jmp	.L400
.L530:
	movq	%r12, 64(%rsp)
	movl	40(%rsp), %r8d
	movl	36(%rsp), %r12d
	movq	%r13, 128(%rsp)
	movl	%r11d, 136(%rsp)
	movl	12(%rsp), %edi
	andl	$7, %r8d
	movl	%ebp, 144(%rsp)
	movl	16(%rsp), %r11d
	movq	%rcx, 264(%rsp)
	movzbl	75(%rsp), %r13d
	movl	%eax, 152(%rsp)
	movq	24(%rsp), %rbp
	movq	112(%rsp), %rcx
	testl	%r12d, %r12d
	js	.L590
	.p2align 4,,10
	.p2align 3
.L625:
	testb	%r13b, %r13b
	jne	.L478
	movq	192(%rsp), %rsi
	movq	%rcx, %rdx
	movq	%r9, %rax
	addq	%rcx, %rsi
	.p2align 4,,10
	.p2align 3
.L436:
	movdqu	(%rdx), %xmm1
	movdqu	16(%rdx), %xmm3
	addq	$32, %rdx
	addq	$64, %rax
	movdqa	%xmm1, %xmm0
	movdqa	%xmm1, %xmm2
	punpcklwd	%xmm3, %xmm1
	punpcklwd	%xmm3, %xmm0
	punpckhwd	%xmm3, %xmm2
	movdqa	%xmm0, %xmm4
	punpcklwd	%xmm2, %xmm0
	punpcklwd	%xmm2, %xmm1
	punpckhwd	%xmm2, %xmm4
	punpcklwd	%xmm4, %xmm0
	punpckhwd	%xmm4, %xmm1
	movdqa	%xmm0, %xmm3
	movdqa	%xmm0, %xmm2
	movdqa	%xmm0, %xmm4
	punpcklwd	%xmm0, %xmm3
	punpckhwd	%xmm0, %xmm2
	punpcklwd	%xmm1, %xmm4
	punpckhwd	%xmm1, %xmm0
	movdqa	%xmm3, %xmm1
	punpckhwd	%xmm4, %xmm3
	punpcklwd	%xmm4, %xmm1
	movups	%xmm3, -48(%rax)
	movups	%xmm1, -64(%rax)
	movdqa	%xmm2, %xmm1
	punpckhwd	%xmm0, %xmm2
	punpcklwd	%xmm0, %xmm1
	movups	%xmm2, -16(%rax)
	movups	%xmm1, -32(%rax)
	cmpq	%rsi, %rdx
	jne	.L436
	movq	56(%rsp), %rax
	addq	%rax, %rcx
	movq	48(%rsp), %rax
	addq	%rax, %r9
	testl	%r8d, %r8d
	je	.L439
	movl	44(%rsp), %edx
.L435:
	movl	40(%rsp), %esi
	subl	%edx, %esi
	cmpl	$1, %esi
	je	.L440
	leaq	(%r10,%rdx,2), %r10
	leaq	(%rbx,%rdx,4), %rdx
	leaq	0(%rbp,%r10,2), %r10
	leaq	(%r15,%rdx,2), %rdx
	movq	(%r10), %xmm0
	leal	-1(%rsi), %eax
	pshuflw	$64, %xmm0, %xmm0
	movq	%xmm0, (%rdx)
	cmpl	$2, %esi
	je	.L441
	movq	4(%r10), %xmm0
	pshuflw	$64, %xmm0, %xmm0
	movq	%xmm0, 8(%rdx)
	cmpl	$2, %eax
	je	.L441
	movq	8(%r10), %xmm0
	pshuflw	$64, %xmm0, %xmm0
	movq	%xmm0, 16(%rdx)
	cmpl	$3, %eax
	je	.L441
	movq	12(%r10), %xmm0
	pshuflw	$64, %xmm0, %xmm0
	movq	%xmm0, 24(%rdx)
	cmpl	$4, %eax
	je	.L441
	movq	16(%r10), %xmm0
	pshuflw	$64, %xmm0, %xmm0
	movq	%xmm0, 32(%rdx)
	cmpl	$5, %eax
	je	.L441
	movq	20(%r10), %xmm0
	pshuflw	$64, %xmm0, %xmm0
	movq	%xmm0, 40(%rdx)
.L441:
	leaq	(%rcx,%rax,4), %rcx
	leaq	(%r9,%rax,8), %r9
.L440:
	movzwl	(%rcx), %eax
	movw	%ax, 4(%r9)
	movw	%ax, 2(%r9)
	movw	%ax, (%r9)
	movzwl	2(%rcx), %eax
	movw	%ax, 6(%r9)
.L439:
	movl	32(%rsp), %eax
	addl	$1, %r14d
	addl	%eax, %r11d
	movl	20(%rsp), %eax
	addl	%eax, %edi
	cmpl	%r14d, 8(%rsp)
	je	.L612
	movl	%r11d, %r10d
	movl	%edi, %ebx
	leaq	0(%rbp,%r10,2), %rcx
	leaq	(%r15,%rbx,2), %r9
	testl	%r12d, %r12d
	jns	.L625
.L590:
	movl	%edi, 12(%rsp)
	movl	%r11d, 16(%rsp)
.L620:
	movq	64(%rsp), %r12
	movq	128(%rsp), %r13
	movl	136(%rsp), %r11d
	movl	144(%rsp), %ebp
	movl	152(%rsp), %eax
	movq	264(%rsp), %rcx
	jmp	.L407
.L526:
	movl	%r11d, 136(%rsp)
	movl	40(%rsp), %edi
	movl	36(%rsp), %r11d
	movq	%r12, 64(%rsp)
	movq	%r13, 128(%rsp)
	movl	12(%rsp), %r8d
	andl	$1, %edi
	movl	%ebp, 144(%rsp)
	movl	16(%rsp), %r10d
	movq	%rcx, 264(%rsp)
	movzbl	299(%rsp), %ebx
	movl	32(%rsp), %r12d
	movl	20(%rsp), %ebp
	movl	%eax, 152(%rsp)
	movq	272(%rsp), %r13
	movq	112(%rsp), %rcx
	testl	%r11d, %r11d
	js	.L586
	.p2align 4,,10
	.p2align 3
.L626:
	testb	%bl, %bl
	jne	.L416
	movq	%rcx, %rdx
	movq	%r9, %rax
	leaq	0(%r13,%rcx), %rsi
	.p2align 4,,10
	.p2align 3
.L417:
	movd	(%rdx), %xmm0
	addq	$4, %rdx
	addq	$12, %rax
	pshuflw	$224, %xmm0, %xmm1
	movd	%xmm0, -8(%rax)
	movd	%xmm1, -12(%rax)
	pshuflw	$225, %xmm0, %xmm1
	punpcklwd	%xmm0, %xmm1
	pshuflw	$236, %xmm1, %xmm1
	movd	%xmm1, -4(%rax)
	cmpq	%rdx, %rsi
	jne	.L417
	testl	%edi, %edi
	je	.L420
	movq	256(%rsp), %rax
	addq	%rax, %rcx
	movq	120(%rsp), %rax
	addq	%rax, %r9
.L416:
	movzwl	(%rcx), %eax
	movd	%eax, %xmm6
	movw	%ax, 4(%r9)
	pshuflw	$0, %xmm6, %xmm0
	movd	%xmm0, (%r9)
.L420:
	addl	$1, %r14d
	addl	%r12d, %r10d
	addl	%ebp, %r8d
	cmpl	%r14d, 8(%rsp)
	je	.L611
	movq	24(%rsp), %rcx
	movl	%r10d, %eax
	leaq	(%rcx,%rax,2), %rcx
	movl	%r8d, %eax
	leaq	(%r15,%rax,2), %r9
	testl	%r11d, %r11d
	jns	.L626
.L586:
	movl	%r8d, 12(%rsp)
	movl	%r10d, 16(%rsp)
	jmp	.L620
.L525:
	movl	40(%rsp), %r8d
	movl	12(%rsp), %edi
	movl	%r11d, 128(%rsp)
	pcmpeqd	%xmm1, %xmm1
	movl	%ebp, 136(%rsp)
	movl	16(%rsp), %r11d
	andl	$7, %r8d
	movl	%eax, 144(%rsp)
	movq	.LC19(%rip), %xmm3
	movq	112(%rsp), %rax
	movq	24(%rsp), %rbp
	movl	%r8d, 12(%rsp)
	movl	36(%rsp), %r8d
	movq	%r12, 64(%rsp)
	movq	%rcx, 112(%rsp)
	testl	%r8d, %r8d
	js	.L585
	.p2align 4,,10
	.p2align 3
.L627:
	cmpb	$0, 75(%rsp)
	jne	.L476
	xorl	%edx, %edx
	.p2align 4,,10
	.p2align 3
.L409:
	movdqu	(%rax,%rdx), %xmm0
	movdqa	%xmm0, %xmm2
	punpckhwd	%xmm1, %xmm0
	punpcklwd	%xmm1, %xmm2
	movups	%xmm0, 16(%r9,%rdx,2)
	movups	%xmm2, (%r9,%rdx,2)
	addq	$16, %rdx
	cmpq	%rdx, %r13
	jne	.L409
	movq	232(%rsp), %rcx
	movl	12(%rsp), %r12d
	addq	%rcx, %rax
	movq	56(%rsp), %rcx
	addq	%rcx, %r9
	testl	%r12d, %r12d
	je	.L413
	movl	44(%rsp), %ecx
	movl	76(%rsp), %esi
.L408:
	movl	40(%rsp), %edx
	subl	%ecx, %edx
	leal	-1(%rdx), %r12d
	cmpl	$2, %r12d
	jbe	.L414
	leaq	(%rbx,%rcx,2), %rbx
	addq	%r10, %rcx
	movq	0(%rbp,%rcx,2), %xmm0
	leaq	(%r15,%rbx,2), %rbx
	movdqa	%xmm0, %xmm2
	punpcklwd	%xmm3, %xmm0
	punpcklwd	%xmm3, %xmm2
	pshufd	$78, %xmm0, %xmm0
	movq	%xmm2, (%rbx)
	movq	%xmm0, 8(%rbx)
	testb	$3, %dl
	je	.L413
	andl	$-4, %edx
	subl	%edx, %esi
	leaq	(%rax,%rdx,2), %rax
	leaq	(%r9,%rdx,4), %r9
.L414:
	movzwl	(%rax), %edx
	movl	$-1, %ebx
	movw	%bx, 2(%r9)
	movw	%dx, (%r9)
	testl	%esi, %esi
	je	.L413
	movzwl	2(%rax), %edx
	movl	$-1, %r10d
	movw	%r10w, 6(%r9)
	movw	%dx, 4(%r9)
	cmpl	$1, %esi
	je	.L413
	movzwl	4(%rax), %eax
	movl	$-1, %ecx
	movw	%cx, 10(%r9)
	movw	%ax, 8(%r9)
.L413:
	movl	32(%rsp), %eax
	addl	$1, %r14d
	addl	%eax, %r11d
	movl	20(%rsp), %eax
	addl	%eax, %edi
	movl	8(%rsp), %eax
	cmpl	%eax, %r14d
	je	.L612
	movl	%r11d, %r10d
	movl	%edi, %ebx
	leaq	0(%rbp,%r10,2), %rax
	leaq	(%r15,%rbx,2), %r9
	testl	%r8d, %r8d
	jns	.L627
.L585:
	movq	64(%rsp), %r12
	movl	%r11d, 16(%rsp)
	movl	136(%rsp), %ebp
	movl	144(%rsp), %eax
	movl	%edi, 12(%rsp)
	movl	128(%rsp), %r11d
	movq	112(%rsp), %rcx
	jmp	.L407
.L580:
	movq	112(%rsp), %rdi
	movl	12(%rsp), %r8d
	movq	%r12, 64(%rsp)
	movl	16(%rsp), %r10d
	movl	20(%rsp), %ebx
	movq	%r13, 112(%rsp)
	movl	%r11d, 128(%rsp)
	movl	36(%rsp), %r11d
	movl	%ebp, 136(%rsp)
	movq	24(%rsp), %r13
	movl	32(%rsp), %ebp
	movl	8(%rsp), %r12d
	testl	%r11d, %r11d
	js	.L587
	.p2align 4,,10
	.p2align 3
.L628:
	movl	%r11d, %esi
	.p2align 4,,10
	.p2align 3
.L421:
	movzwl	(%rdi), %edx
	subl	$1, %esi
	addq	$2, %rdi
	addq	$8, %r9
	movd	%edx, %xmm7
	movw	%dx, -4(%r9)
	movl	$-1, %edx
	pshuflw	$0, %xmm7, %xmm0
	movw	%dx, -2(%r9)
	movd	%xmm0, -8(%r9)
	cmpl	$-1, %esi
	jne	.L421
	addl	$1, %r14d
	addl	%ebp, %r10d
	addl	%ebx, %r8d
	cmpl	%r14d, %r12d
	je	.L606
	movl	%r10d, %edx
	leaq	0(%r13,%rdx,2), %rdi
	movl	%r8d, %edx
	leaq	(%r15,%rdx,2), %r9
	testl	%r11d, %r11d
	jns	.L628
.L587:
	movq	64(%rsp), %r12
	movq	112(%rsp), %r13
	movl	%r8d, 12(%rsp)
	movl	%r10d, 16(%rsp)
	movl	128(%rsp), %r11d
	movl	136(%rsp), %ebp
	jmp	.L407
.L583:
	movl	%eax, 136(%rsp)
	movq	112(%rsp), %rdx
	movl	%ebp, %esi
	movl	12(%rsp), %r8d
	movl	16(%rsp), %r10d
	movq	%r12, 64(%rsp)
	movl	20(%rsp), %ebx
	movl	32(%rsp), %ebp
	movq	%r13, 112(%rsp)
	movl	%r11d, 128(%rsp)
	movq	24(%rsp), %r13
	movl	36(%rsp), %r11d
	movl	8(%rsp), %r12d
	.p2align 4,,10
	.p2align 3
.L399:
	testl	%r11d, %r11d
	js	.L593
	movl	%r14d, 12(%rsp)
	movl	%r11d, %edi
	.p2align 4,,10
	.p2align 3
.L451:
	movzwl	(%rdx), %eax
	movzwl	2(%rdx), %r14d
	subl	$1, %edi
	addq	$6, %rdx
	addq	$4, %r9
	imull	$150, %r14d, %r14d
	imull	$77, %eax, %eax
	addl	%r14d, %eax
	movzwl	-2(%rdx), %r14d
	imull	$29, %r14d, %r14d
	addl	%r14d, %eax
	movl	$-1, %r14d
	sarl	$8, %eax
	movw	%r14w, -2(%r9)
	movw	%ax, -4(%r9)
	cmpl	$-1, %edi
	jne	.L451
	movl	12(%rsp), %r14d
	addl	%ebp, %r10d
	addl	%ebx, %r8d
	addl	$1, %r14d
	cmpl	%r14d, %r12d
	je	.L606
	movl	%r10d, %eax
	leaq	0(%r13,%rax,2), %rdx
	movl	%r8d, %eax
	leaq	(%r15,%rax,2), %r9
	jmp	.L399
.L584:
	movl	36(%rsp), %edx
	movl	12(%rsp), %r10d
	movq	112(%rsp), %rdi
	movl	16(%rsp), %ebx
	testl	%edx, %edx
	js	.L596
	.p2align 4,,10
	.p2align 3
.L629:
	cmpb	$0, 211(%rsp)
	jne	.L482
	movq	176(%rsp), %r8
	movq	%rdi, %rdx
	movq	%r9, %rsi
	addq	%rdi, %r8
	.p2align 4,,10
	.p2align 3
.L468:
	movd	8(%rdx), %xmm0
	movd	12(%rdx), %xmm2
	addq	$16, %rdx
	addq	$12, %rsi
	movd	-12(%rdx), %xmm1
	punpcklwd	%xmm0, %xmm1
	punpcklwd	%xmm2, %xmm0
	movd	-16(%rdx), %xmm2
	pshuflw	$230, %xmm0, %xmm0
	movd	%xmm1, -8(%rsi)
	movd	%xmm2, -12(%rsi)
	movd	%xmm0, -4(%rsi)
	cmpq	%rdx, %r8
	jne	.L468
	movq	216(%rsp), %rsi
	movl	212(%rsp), %edx
	addq	%rsi, %rdi
	movq	224(%rsp), %rsi
	addq	%rsi, %r9
.L467:
	movzwl	(%rdi), %esi
	movw	%si, (%r9)
	movzwl	2(%rdi), %esi
	movw	%si, 2(%r9)
	movzwl	4(%rdi), %esi
	movw	%si, 4(%r9)
	testl	%edx, %edx
	je	.L469
	movl	8(%rdi), %edx
	movl	%edx, 6(%r9)
	movzwl	12(%rdi), %edx
	movw	%dx, 10(%r9)
.L469:
	movl	32(%rsp), %edi
	addl	$1, %r14d
	addl	%edi, %ebx
	movl	20(%rsp), %edi
	addl	%edi, %r10d
	cmpl	%r14d, 8(%rsp)
	je	.L611
	movq	24(%rsp), %rdi
	movl	%ebx, %edx
	leaq	(%rdi,%rdx,2), %rdi
	movl	%r10d, %edx
	leaq	(%r15,%rdx,2), %r9
	movl	36(%rsp), %edx
	testl	%edx, %edx
	jns	.L629
.L596:
	movl	%r10d, 12(%rsp)
	movl	%ebx, 16(%rsp)
	jmp	.L407
.L534:
	movl	%eax, 64(%rsp)
	movq	112(%rsp), %rsi
	pxor	%xmm8, %xmm8
	movdqa	.LC20(%rip), %xmm15
	movq	24(%rsp), %rax
	movdqa	.LC21(%rip), %xmm14
	movdqa	.LC22(%rip), %xmm13
	.p2align 4,,10
	.p2align 3
.L397:
	movl	36(%rsp), %edi
	testl	%edi, %edi
	js	.L594
.L630:
	cmpb	$0, 99(%rsp)
	jne	.L480
	movq	200(%rsp), %r8
	movq	%rsi, %rdx
	movq	%r9, %rdi
	addq	%rsi, %r8
	.p2align 4,,10
	.p2align 3
.L454:
	movdqu	(%rdx), %xmm0
	movdqu	32(%rdx), %xmm3
	addq	$64, %rdx
	addq	$16, %rdi
	movdqu	-48(%rdx), %xmm5
	movdqu	-16(%rdx), %xmm6
	movdqa	%xmm0, %xmm1
	movdqa	%xmm0, %xmm7
	movdqa	%xmm3, %xmm4
	punpcklwd	%xmm5, %xmm1
	punpckhwd	%xmm5, %xmm7
	punpcklwd	%xmm6, %xmm4
	movdqa	%xmm1, %xmm11
	movdqa	%xmm3, %xmm5
	punpcklwd	%xmm7, %xmm1
	punpckhwd	%xmm6, %xmm5
	punpckhwd	%xmm7, %xmm11
	movdqa	%xmm4, %xmm10
	punpcklwd	%xmm11, %xmm1
	punpckhwd	%xmm5, %xmm10
	punpcklwd	%xmm5, %xmm4
	punpcklwd	%xmm10, %xmm4
	movdqa	%xmm1, %xmm9
	movdqa	%xmm1, %xmm2
	punpckhwd	%xmm4, %xmm9
	punpcklwd	%xmm4, %xmm2
	punpcklwd	%xmm4, %xmm1
	movdqu	-48(%rdx), %xmm4
	punpcklwd	%xmm6, %xmm3
	movdqa	%xmm2, %xmm12
	punpcklwd	%xmm9, %xmm2
	punpcklwd	%xmm4, %xmm0
	punpcklwd	%xmm5, %xmm3
	punpckhwd	%xmm9, %xmm12
	punpcklwd	%xmm7, %xmm0
	punpckhwd	%xmm10, %xmm3
	punpcklwd	%xmm12, %xmm2
	punpckhwd	%xmm11, %xmm0
	movdqa	%xmm2, %xmm5
	movdqa	%xmm2, %xmm6
	movdqa	%xmm0, %xmm4
	punpcklwd	%xmm3, %xmm0
	punpcklwd	%xmm9, %xmm1
	punpckhwd	%xmm3, %xmm4
	movdqa	%xmm0, %xmm3
	punpckhwd	%xmm12, %xmm1
	punpckhwd	%xmm4, %xmm3
	pmullw	%xmm15, %xmm5
	punpcklwd	%xmm4, %xmm0
	punpcklwd	%xmm3, %xmm0
	pmulhuw	%xmm15, %xmm6
	movdqa	%xmm0, %xmm2
	pmulhuw	%xmm14, %xmm0
	pmullw	%xmm14, %xmm2
	movdqa	%xmm5, %xmm4
	punpcklwd	%xmm6, %xmm4
	punpckhwd	%xmm6, %xmm5
	movdqa	%xmm2, %xmm3
	punpckhwd	%xmm0, %xmm2
	punpcklwd	%xmm0, %xmm3
	movdqa	%xmm2, %xmm0
	paddd	%xmm4, %xmm3
	movdqa	%xmm1, %xmm4
	paddd	%xmm5, %xmm0
	pmullw	%xmm13, %xmm4
	pmulhuw	%xmm13, %xmm1
	movdqa	%xmm4, %xmm7
	punpckhwd	%xmm1, %xmm4
	punpcklwd	%xmm1, %xmm7
	paddd	%xmm4, %xmm0
	paddd	%xmm7, %xmm3
	psrad	$8, %xmm0
	psrad	$8, %xmm3
	movdqa	%xmm3, %xmm1
	movdqa	%xmm3, %xmm2
	punpcklwd	%xmm0, %xmm1
	punpckhwd	%xmm0, %xmm2
	movdqa	%xmm1, %xmm0
	punpcklwd	%xmm2, %xmm1
	punpckhwd	%xmm2, %xmm0
	punpcklwd	%xmm0, %xmm1
	movups	%xmm1, -16(%rdi)
	cmpq	%r8, %rdx
	jne	.L454
	movq	184(%rsp), %rdi
	movl	100(%rsp), %r8d
	addq	%rdi, %rsi
	movq	104(%rsp), %rdi
	addq	%rdi, %r9
	movl	%r11d, %edi
.L453:
	movl	%ebp, %edx
	subl	%edi, %edx
	cmpl	$3, %edx
	jbe	.L455
	leaq	(%r10,%rdi,4), %r10
	andl	$-4, %edx
	addq	%rbx, %rdi
	leaq	(%rax,%r10,2), %r10
	subl	%edx, %r8d
	leaq	(%rsi,%rdx,8), %rsi
	movq	(%r10), %xmm1
	movq	8(%r10), %xmm6
	leaq	(%r9,%rdx,2), %r9
	movq	16(%r10), %xmm0
	movq	24(%r10), %xmm5
	movdqa	%xmm1, %xmm9
	movdqa	%xmm1, %xmm2
	punpcklwd	%xmm6, %xmm1
	punpcklwd	%xmm6, %xmm9
	movdqa	%xmm0, %xmm7
	punpcklwd	%xmm6, %xmm2
	pshufd	$78, %xmm9, %xmm9
	punpcklwd	%xmm5, %xmm7
	movdqa	%xmm0, %xmm4
	punpcklwd	%xmm9, %xmm2
	pshufd	$78, %xmm7, %xmm7
	punpcklwd	%xmm5, %xmm4
	punpcklwd	%xmm5, %xmm0
	punpcklwd	%xmm9, %xmm1
	punpcklwd	%xmm7, %xmm4
	movdqa	%xmm2, %xmm10
	movdqa	%xmm2, %xmm3
	pshufd	$78, %xmm1, %xmm1
	punpcklwd	%xmm7, %xmm0
	punpcklwd	%xmm4, %xmm10
	punpcklwd	%xmm4, %xmm3
	pshufd	$78, %xmm0, %xmm0
	punpcklwd	%xmm4, %xmm2
	movdqa	%xmm1, %xmm4
	punpcklwd	%xmm0, %xmm4
	punpcklwd	%xmm0, %xmm1
	pshufd	$78, %xmm10, %xmm10
	pshufd	$78, %xmm4, %xmm4
	punpcklwd	%xmm10, %xmm3
	punpcklwd	%xmm10, %xmm2
	punpcklwd	%xmm4, %xmm1
	movdqa	%xmm3, %xmm7
	pshufd	$78, %xmm2, %xmm2
	movdqa	%xmm1, %xmm0
	punpcklwd	%xmm8, %xmm7
	punpcklwd	%xmm8, %xmm1
	punpcklwd	%xmm8, %xmm0
	pshufd	$78, %xmm1, %xmm1
	movdqa	%xmm2, %xmm5
	movdqa	%xmm0, %xmm6
	movdqa	%xmm1, %xmm4
	punpcklwd	%xmm8, %xmm5
	pslld	$2, %xmm6
	pslld	$2, %xmm4
	punpcklwd	%xmm8, %xmm3
	paddd	%xmm0, %xmm6
	movdqa	%xmm7, %xmm0
	paddd	%xmm1, %xmm4
	pslld	$2, %xmm0
	pshufd	$78, %xmm3, %xmm3
	punpcklwd	%xmm8, %xmm2
	paddd	%xmm7, %xmm0
	pshufd	$78, %xmm2, %xmm2
	movdqa	%xmm6, %xmm1
	pslld	$4, %xmm1
	pslld	$2, %xmm0
	psubd	%xmm6, %xmm1
	psubd	%xmm7, %xmm0
	pslld	$1, %xmm1
	pslld	$2, %xmm0
	paddd	%xmm7, %xmm0
	paddd	%xmm1, %xmm0
	movdqa	%xmm5, %xmm1
	pslld	$3, %xmm1
	psubd	%xmm5, %xmm1
	pslld	$2, %xmm1
	paddd	%xmm5, %xmm1
	paddd	%xmm1, %xmm0
	movdqa	%xmm3, %xmm1
	pslld	$2, %xmm1
	paddd	%xmm3, %xmm1
	psrad	$8, %xmm0
	pslld	$2, %xmm1
	psubd	%xmm3, %xmm1
	pslld	$2, %xmm1
	paddd	%xmm3, %xmm1
	movdqa	%xmm4, %xmm3
	pslld	$4, %xmm3
	psubd	%xmm4, %xmm3
	pslld	$1, %xmm3
	paddd	%xmm3, %xmm1
	movdqa	%xmm2, %xmm3
	pslld	$3, %xmm3
	psubd	%xmm2, %xmm3
	pslld	$2, %xmm3
	paddd	%xmm3, %xmm2
	paddd	%xmm2, %xmm1
	movdqa	%xmm0, %xmm2
	psrad	$8, %xmm1
	punpcklwd	%xmm1, %xmm2
	punpcklwd	%xmm1, %xmm0
	pshufd	$78, %xmm2, %xmm2
	punpcklwd	%xmm2, %xmm0
	movq	%xmm0, (%r15,%rdi,2)
.L455:
	movzwl	2(%rsi), %edx
	movzwl	(%rsi), %edi
	imull	$150, %edx, %edx
	imull	$77, %edi, %edi
	addl	%edi, %edx
	movzwl	4(%rsi), %edi
	imull	$29, %edi, %edi
	addl	%edi, %edx
	sarl	$8, %edx
	movw	%dx, (%r9)
	testl	%r8d, %r8d
	je	.L456
	movzwl	10(%rsi), %edx
	movzwl	8(%rsi), %edi
	imull	$150, %edx, %edx
	imull	$77, %edi, %edi
	addl	%edi, %edx
	movzwl	12(%rsi), %edi
	imull	$29, %edi, %edi
	addl	%edi, %edx
	sarl	$8, %edx
	movw	%dx, 2(%r9)
	cmpl	$1, %r8d
	je	.L456
	movzwl	16(%rsi), %edx
	movzwl	18(%rsi), %edi
	imull	$77, %edx, %edx
	imull	$150, %edi, %edi
	addl	%edi, %edx
	movzwl	20(%rsi), %edi
	imull	$29, %edi, %edi
	addl	%edi, %edx
	sarl	$8, %edx
	movw	%dx, 4(%r9)
	cmpl	$2, %r8d
	je	.L456
	movzwl	24(%rsi), %edi
	movzwl	26(%rsi), %edx
	addl	$1, %r14d
	movzwl	28(%rsi), %esi
	imull	$77, %edi, %edi
	imull	$150, %edx, %edx
	imull	$29, %esi, %esi
	addl	%edi, %edx
	movl	32(%rsp), %edi
	addl	%edi, 16(%rsp)
	addl	%esi, %edx
	movl	20(%rsp), %edi
	addl	%edi, 12(%rsp)
	sarl	$8, %edx
	movw	%dx, 6(%r9)
	cmpl	%r14d, 8(%rsp)
	je	.L613
	movl	16(%rsp), %r10d
	movl	12(%rsp), %ebx
	movl	36(%rsp), %edi
	leaq	(%rax,%r10,2), %rsi
	leaq	(%r15,%rbx,2), %r9
	testl	%edi, %edi
	jns	.L630
.L594:
	movl	64(%rsp), %eax
	jmp	.L407
.L581:
	movl	%eax, 64(%rsp)
	movq	112(%rsp), %rdx
	movq	24(%rsp), %rax
	.p2align 4,,10
	.p2align 3
.L403:
	movl	36(%rsp), %esi
	testl	%esi, %esi
	js	.L594
	cmpb	$0, 99(%rsp)
	jne	.L477
	xorl	%esi, %esi
	.p2align 4,,10
	.p2align 3
.L424:
	movdqu	(%rdx,%rsi,2), %xmm0
	movdqu	16(%rdx,%rsi,2), %xmm6
	movdqa	%xmm0, %xmm1
	punpcklwd	%xmm6, %xmm0
	punpckhwd	%xmm6, %xmm1
	movdqa	%xmm0, %xmm2
	punpckhwd	%xmm1, %xmm2
	punpcklwd	%xmm1, %xmm0
	punpcklwd	%xmm2, %xmm0
	movups	%xmm0, (%r9,%rsi)
	addq	$16, %rsi
	cmpq	%rsi, %r12
	jne	.L424
	movq	160(%rsp), %rdi
	movl	100(%rsp), %r8d
	addq	%rdi, %rdx
	movq	104(%rsp), %rdi
	addq	%rdi, %r9
	movl	%r11d, %edi
.L423:
	movl	%ebp, %esi
	subl	%edi, %esi
	cmpl	$3, %esi
	jbe	.L425
	leaq	(%r10,%rdi,2), %r10
	andl	$-4, %esi
	addq	%rbx, %rdi
	leaq	(%rax,%r10,2), %r10
	subl	%esi, %r8d
	leaq	(%rdx,%rsi,4), %rdx
	movq	(%r10), %xmm0
	movq	8(%r10), %xmm1
	leaq	(%r9,%rsi,2), %r9
	movdqa	%xmm0, %xmm2
	punpcklwd	%xmm1, %xmm0
	punpcklwd	%xmm1, %xmm2
	pshufd	$78, %xmm2, %xmm2
	punpcklwd	%xmm2, %xmm0
	movq	%xmm0, (%r15,%rdi,2)
.L425:
	movzwl	(%rdx), %esi
	movw	%si, (%r9)
	testl	%r8d, %r8d
	je	.L426
	movzwl	4(%rdx), %esi
	movw	%si, 2(%r9)
	cmpl	$1, %r8d
	je	.L426
	movzwl	8(%rdx), %esi
	movw	%si, 4(%r9)
	cmpl	$2, %r8d
	je	.L426
	movzwl	12(%rdx), %edx
	movl	32(%rsp), %edi
	addl	$1, %r14d
	addl	%edi, 16(%rsp)
	movl	20(%rsp), %edi
	movw	%dx, 6(%r9)
	addl	%edi, 12(%rsp)
	cmpl	%r14d, 8(%rsp)
	je	.L613
	movl	16(%rsp), %r10d
	movl	12(%rsp), %ebx
	leaq	(%rax,%r10,2), %rdx
	leaq	(%r15,%rbx,2), %r9
	jmp	.L403
	.p2align 4,,10
	.p2align 3
.L456:
	movl	32(%rsp), %edi
	movl	20(%rsp), %esi
	addl	$1, %r14d
	addl	%edi, 16(%rsp)
	movl	16(%rsp), %ebx
	addl	%esi, 12(%rsp)
	movl	12(%rsp), %edi
	cmpl	%r14d, 8(%rsp)
	je	.L613
	movl	%ebx, %r10d
	movl	%edi, %ebx
	leaq	(%rax,%r10,2), %rsi
	leaq	(%r15,%rbx,2), %r9
	jmp	.L397
	.p2align 4,,10
	.p2align 3
.L426:
	movl	32(%rsp), %edi
	movl	20(%rsp), %esi
	addl	$1, %r14d
	addl	%edi, 16(%rsp)
	movl	16(%rsp), %ebx
	addl	%esi, 12(%rsp)
	movl	12(%rsp), %edi
	cmpl	%r14d, 8(%rsp)
	je	.L613
	movl	%ebx, %r10d
	movl	%edi, %ebx
	leaq	(%rax,%r10,2), %rdx
	leaq	(%r15,%rbx,2), %r9
	jmp	.L403
	.p2align 4,,10
	.p2align 3
.L606:
	movq	%r13, %r15
	jmp	.L412
	.p2align 4,,10
	.p2align 3
.L612:
	movq	%rbp, %r15
	jmp	.L412
.L613:
	movq	%rax, %r15
	jmp	.L412
.L476:
	movl	%r8d, %esi
	xorl	%ecx, %ecx
	jmp	.L408
.L479:
	movl	36(%rsp), %edi
	xorl	%eax, %eax
	jmp	.L442
.L481:
	movl	%r13d, %esi
	xorl	%ecx, %ecx
	jmp	.L460
.L480:
	movl	36(%rsp), %r8d
	xorl	%edi, %edi
	jmp	.L453
.L478:
	xorl	%edx, %edx
	jmp	.L435
.L477:
	movl	36(%rsp), %r8d
	xorl	%edi, %edi
	jmp	.L423
.L482:
	movl	36(%rsp), %edx
	jmp	.L467
.L391:
	movq	%r15, %rdi
	call	free@PLT
	leaq	.LC18(%rip), %rax
	movq	%rax, %fs:stbi__g_failure_reason@tpoff
	jmp	.L388
.L621:
	leaq	__PRETTY_FUNCTION__.42(%rip), %rcx
	movl	$1818, %edx
	leaq	.LC16(%rip), %rsi
	leaq	.LC17(%rip), %rdi
	call	__assert_fail@PLT
	.cfi_endproc
.LFE610:
	.size	stbi__convert_format16, .-stbi__convert_format16
	.p2align 4
	.type	stbi__resample_row_hv_2_simd, @function
stbi__resample_row_hv_2_simd:
.LFB642:
	.cfi_startproc
	movzbl	(%rsi), %eax
	movl	%ecx, %r10d
	movq	%rdi, %r8
	movq	%rdx, %rdi
	leal	(%rax,%rax,2), %ecx
	movzbl	(%rdx), %eax
	addl	%eax, %ecx
	cmpl	$1, %r10d
	je	.L641
	leal	-1(%r10), %r9d
	andl	$-8, %r9d
	jle	.L638
	movdqa	.LC23(%rip), %xmm5
	xorl	%eax, %eax
	pxor	%xmm4, %xmm4
	.p2align 4,,10
	.p2align 3
.L635:
	movq	(%rsi,%rax), %xmm2
	movq	(%rdi,%rax), %xmm0
	movzbl	8(%rsi,%rax), %edx
	punpcklbw	%xmm4, %xmm2
	punpcklbw	%xmm4, %xmm0
	movdqa	%xmm2, %xmm6
	leal	(%rdx,%rdx,2), %edx
	psllw	$2, %xmm6
	paddw	%xmm0, %xmm6
	movdqa	%xmm6, %xmm3
	psubw	%xmm2, %xmm3
	psubw	%xmm6, %xmm2
	movdqa	%xmm3, %xmm0
	movdqa	%xmm3, %xmm1
	pslldq	$2, %xmm0
	psllw	$2, %xmm3
	pinsrw	$0, %ecx, %xmm0
	movzbl	8(%rdi,%rax), %ecx
	paddw	%xmm5, %xmm3
	psrldq	$2, %xmm1
	paddw	%xmm3, %xmm0
	addl	%ecx, %edx
	paddw	%xmm2, %xmm0
	pinsrw	$7, %edx, %xmm1
	paddw	%xmm3, %xmm1
	paddw	%xmm2, %xmm1
	movdqa	%xmm0, %xmm2
	punpcklwd	%xmm1, %xmm2
	punpckhwd	%xmm1, %xmm0
	psrlw	$4, %xmm2
	psrlw	$4, %xmm0
	movdqa	%xmm2, %xmm1
	packuswb	%xmm0, %xmm1
	movups	%xmm1, (%r8,%rax,2)
	movzbl	7(%rsi,%rax), %edx
	leal	(%rdx,%rdx,2), %ecx
	movzbl	7(%rdi,%rax), %edx
	addq	$8, %rax
	addl	%edx, %ecx
	cmpl	%eax, %r9d
	jg	.L635
	subl	$1, %r9d
	shrl	$3, %r9d
	addl	$1, %r9d
	leal	0(,%r9,8), %edx
	sall	$4, %r9d
	movslq	%edx, %r11
	movslq	%r9d, %r9
	addl	$1, %edx
	movzbl	(%rsi,%r11), %eax
	movzbl	(%rdi,%r11), %r11d
	addq	%r8, %r9
	leal	(%rax,%rax,2), %eax
	addl	%r11d, %eax
.L634:
	leal	(%rax,%rax,2), %r11d
	leal	8(%rcx,%r11), %ecx
	sarl	$4, %ecx
	movb	%cl, (%r9)
	cmpl	%edx, %r10d
	jle	.L636
	movslq	%edx, %rdx
	.p2align 4,,10
	.p2align 3
.L637:
	movl	%eax, %ecx
	movzbl	(%rsi,%rdx), %eax
	movzbl	(%rdi,%rdx), %r9d
	leal	(%rax,%rax,2), %eax
	addl	%r9d, %eax
	leal	(%rcx,%rcx,2), %r9d
	leal	8(%rax,%r9), %r9d
	sarl	$4, %r9d
	movb	%r9b, -1(%r8,%rdx,2)
	leal	(%rax,%rax,2), %r9d
	leal	8(%rcx,%r9), %ecx
	sarl	$4, %ecx
	movb	%cl, (%r8,%rdx,2)
	addq	$1, %rdx
	cmpl	%edx, %r10d
	jg	.L637
.L636:
	addl	%r10d, %r10d
	addl	$2, %eax
	sarl	$2, %eax
	movslq	%r10d, %r10
	movb	%al, -1(%r8,%r10)
	movq	%r8, %rax
	ret
	.p2align 4,,10
	.p2align 3
.L641:
	addl	$2, %ecx
	sarl	$2, %ecx
	movzbl	%cl, %eax
	movb	%cl, %ah
	movw	%ax, (%r8)
	movq	%r8, %rax
	ret
	.p2align 4,,10
	.p2align 3
.L638:
	movq	%r8, %r9
	movl	%ecx, %eax
	movl	$1, %edx
	jmp	.L634
	.cfi_endproc
.LFE642:
	.size	stbi__resample_row_hv_2_simd, .-stbi__resample_row_hv_2_simd
	.p2align 4
	.type	stbi__YCbCr_to_RGB_simd, @function
stbi__YCbCr_to_RGB_simd:
.LFB645:
	.cfi_startproc
	pushq	%r13
	.cfi_def_cfa_offset 16
	.cfi_offset 13, -16
	movq	%rdx, %r10
	movq	%rcx, %r11
	pushq	%r12
	.cfi_def_cfa_offset 24
	.cfi_offset 12, -24
	pushq	%rbp
	.cfi_def_cfa_offset 32
	.cfi_offset 6, -32
	pushq	%rbx
	.cfi_def_cfa_offset 40
	.cfi_offset 3, -40
	cmpl	$4, %r9d
	je	.L643
.L655:
	xorl	%eax, %eax
.L645:
	movslq	%r9d, %r9
	movslq	%eax, %rcx
	cmpl	%eax, %r8d
	jle	.L642
	.p2align 4,,10
	.p2align 3
.L653:
	movzbl	(%r11,%rcx), %r12d
	movzbl	(%r10,%rcx), %edx
	movzbl	(%rsi,%rcx), %r13d
	addl	$-128, %edx
	addl	$-128, %r12d
	imull	$1470208, %r12d, %ebp
	sall	$20, %r13d
	imull	$-360960, %edx, %ebx
	addl	$524288, %r13d
	imull	$-748800, %r12d, %r12d
	imull	$1858048, %edx, %eax
	addl	%r13d, %ebp
	xorw	%bx, %bx
	addl	%r13d, %r12d
	addl	%r12d, %ebx
	movl	%ebp, %r12d
	addl	%r13d, %eax
	sarl	$20, %ebx
	sarl	$20, %r12d
	movl	%ebx, %edx
	sarl	$20, %eax
	movl	%r12d, %ebx
	cmpl	$268435455, %ebp
	jbe	.L648
	movl	%r12d, %ebx
	notl	%ebx
	sarl	$31, %ebx
.L648:
	cmpl	$255, %edx
	jbe	.L650
	notl	%edx
	sarl	$31, %edx
.L650:
	cmpl	$255, %eax
	jbe	.L652
	notl	%eax
	sarl	$31, %eax
.L652:
	addq	$1, %rcx
	movb	%bl, (%rdi)
	movb	%dl, 1(%rdi)
	movb	%al, 2(%rdi)
	movb	$-1, 3(%rdi)
	addq	%r9, %rdi
	cmpl	%ecx, %r8d
	jg	.L653
.L642:
	popq	%rbx
	.cfi_remember_state
	.cfi_def_cfa_offset 32
	popq	%rbp
	.cfi_def_cfa_offset 24
	popq	%r12
	.cfi_def_cfa_offset 16
	popq	%r13
	.cfi_def_cfa_offset 8
	ret
	.p2align 4,,10
	.p2align 3
.L643:
	.cfi_restore_state
	cmpl	$7, %r8d
	jle	.L655
	leal	-8(%r8), %eax
	pxor	%xmm2, %xmm2
	movdqa	.LC24(%rip), %xmm9
	movdqa	.LC25(%rip), %xmm3
	shrl	$3, %eax
	movdqa	.LC27(%rip), %xmm7
	movdqa	.LC26(%rip), %xmm8
	leal	1(%rax), %ebx
	movdqa	.LC28(%rip), %xmm6
	xorl	%eax, %eax
	movdqa	.LC29(%rip), %xmm5
	movdqa	.LC2(%rip), %xmm4
	movq	%rbx, %rdx
	leaq	0(,%rbx,8), %rcx
	.p2align 4,,10
	.p2align 3
.L646:
	movq	(%rsi,%rax), %xmm0
	movdqa	%xmm9, %xmm11
	movdqa	%xmm2, %xmm12
	movdqa	%xmm2, %xmm10
	movdqa	%xmm8, %xmm1
	punpcklbw	%xmm0, %xmm11
	movq	(%r11,%rax), %xmm0
	psrlw	$4, %xmm11
	pxor	%xmm3, %xmm0
	punpcklbw	%xmm0, %xmm12
	movq	(%r10,%rax), %xmm0
	pmulhw	%xmm12, %xmm1
	pmulhw	%xmm5, %xmm12
	pxor	%xmm3, %xmm0
	punpcklbw	%xmm0, %xmm10
	movdqa	%xmm7, %xmm0
	pmulhw	%xmm10, %xmm0
	pmulhw	%xmm6, %xmm10
	paddw	%xmm11, %xmm1
	psraw	$4, %xmm1
	paddw	%xmm11, %xmm10
	paddw	%xmm11, %xmm0
	psraw	$4, %xmm10
	paddw	%xmm12, %xmm0
	packuswb	%xmm10, %xmm1
	psraw	$4, %xmm0
	packuswb	%xmm4, %xmm0
	movdqa	%xmm1, %xmm10
	punpcklbw	%xmm0, %xmm10
	punpckhbw	%xmm0, %xmm1
	movdqa	%xmm10, %xmm0
	punpckhwd	%xmm1, %xmm10
	punpcklwd	%xmm1, %xmm0
	movups	%xmm10, 16(%rdi,%rax,4)
	movups	%xmm0, (%rdi,%rax,4)
	addq	$8, %rax
	cmpq	%rax, %rcx
	jne	.L646
	salq	$5, %rbx
	leal	0(,%rdx,8), %eax
	addq	%rbx, %rdi
	jmp	.L645
	.cfi_endproc
.LFE645:
	.size	stbi__YCbCr_to_RGB_simd, .-stbi__YCbCr_to_RGB_simd
	.p2align 4
	.type	stbi__idct_simd, @function
stbi__idct_simd:
.LFB625:
	.cfi_startproc
	movdqa	32(%rdx), %xmm0
	movdqa	(%rdx), %xmm3
	movslq	%esi, %rsi
	movdqa	80(%rdx), %xmm13
	movdqa	112(%rdx), %xmm8
	leaq	(%rdi,%rsi), %rax
	movdqa	%xmm0, %xmm1
	punpcklwd	96(%rdx), %xmm1
	punpckhwd	96(%rdx), %xmm0
	movdqa	%xmm3, %xmm2
	movdqa	16(%rdx), %xmm7
	movdqa	48(%rdx), %xmm9
	movdqa	%xmm8, %xmm10
	movdqa	%xmm1, %xmm15
	movdqa	%xmm1, %xmm6
	movdqa	64(%rdx), %xmm1
	movdqa	%xmm0, %xmm5
	pmaddwd	.LC30(%rip), %xmm15
	pmaddwd	.LC31(%rip), %xmm6
	movdqa	%xmm0, %xmm4
	pxor	%xmm0, %xmm0
	paddw	%xmm1, %xmm2
	psubw	%xmm1, %xmm3
	movaps	%xmm15, -40(%rsp)
	movdqa	%xmm6, %xmm15
	movdqa	%xmm0, %xmm6
	movdqa	%xmm0, %xmm1
	pmaddwd	.LC30(%rip), %xmm5
	punpcklwd	%xmm2, %xmm6
	punpcklwd	%xmm3, %xmm1
	movdqa	%xmm0, %xmm12
	psrad	$4, %xmm6
	punpckhwd	%xmm9, %xmm10
	punpckhwd	%xmm2, %xmm12
	movdqa	%xmm0, %xmm2
	movaps	%xmm5, -120(%rsp)
	pmaddwd	.LC31(%rip), %xmm4
	movaps	%xmm6, -88(%rsp)
	punpckhwd	%xmm3, %xmm2
	movdqa	%xmm13, %xmm5
	movdqa	%xmm8, %xmm3
	movdqa	%xmm13, %xmm6
	punpcklwd	%xmm9, %xmm3
	punpcklwd	%xmm7, %xmm5
	movaps	%xmm4, -104(%rsp)
	punpckhwd	%xmm7, %xmm6
	paddw	%xmm8, %xmm7
	paddw	%xmm13, %xmm9
	movdqa	%xmm10, %xmm4
	movdqa	%xmm12, %xmm14
	movdqa	%xmm3, %xmm10
	movdqa	%xmm7, %xmm8
	psrad	$4, %xmm14
	punpckhwd	%xmm9, %xmm7
	punpcklwd	%xmm9, %xmm8
	movdqa	%xmm5, %xmm11
	movdqa	%xmm6, %xmm12
	movaps	%xmm14, -72(%rsp)
	movdqa	%xmm8, %xmm13
	psrad	$4, %xmm1
	movdqa	%xmm7, %xmm9
	pmaddwd	.LC32(%rip), %xmm10
	pmaddwd	.LC33(%rip), %xmm3
	psrad	$4, %xmm2
	pmaddwd	.LC34(%rip), %xmm11
	movdqa	%xmm10, %xmm14
	movdqa	%xmm4, %xmm10
	pmaddwd	.LC33(%rip), %xmm4
	pmaddwd	.LC32(%rip), %xmm10
	pmaddwd	.LC34(%rip), %xmm12
	movaps	%xmm15, -24(%rsp)
	pmaddwd	.LC35(%rip), %xmm6
	pmaddwd	.LC37(%rip), %xmm7
	pmaddwd	.LC36(%rip), %xmm13
	pmaddwd	.LC35(%rip), %xmm5
	pmaddwd	.LC36(%rip), %xmm9
	paddd	%xmm7, %xmm12
	paddd	%xmm13, %xmm14
	paddd	%xmm7, %xmm4
	movdqa	.LC38(%rip), %xmm7
	paddd	%xmm9, %xmm10
	paddd	%xmm9, %xmm6
	movdqa	-88(%rsp), %xmm9
	movaps	%xmm14, -56(%rsp)
	pmaddwd	.LC37(%rip), %xmm8
	movdqa	-72(%rsp), %xmm14
	paddd	%xmm13, %xmm5
	paddd	-104(%rsp), %xmm14
	paddd	%xmm15, %xmm9
	paddd	%xmm8, %xmm11
	paddd	%xmm8, %xmm3
	paddd	%xmm7, %xmm9
	movdqa	%xmm14, %xmm8
	paddd	%xmm7, %xmm8
	movdqa	%xmm9, %xmm14
	psubd	%xmm5, %xmm9
	movdqa	%xmm8, %xmm13
	paddd	%xmm5, %xmm14
	psubd	%xmm6, %xmm8
	paddd	%xmm6, %xmm13
	psrad	$10, %xmm14
	psrad	$10, %xmm13
	movdqa	%xmm14, %xmm15
	packssdw	%xmm13, %xmm15
	psrad	$10, %xmm9
	movdqa	%xmm15, %xmm14
	psrad	$10, %xmm8
	movdqa	-40(%rsp), %xmm15
	movdqa	%xmm9, %xmm6
	packssdw	%xmm8, %xmm6
	movdqa	-120(%rsp), %xmm8
	movdqa	%xmm6, %xmm13
	movdqa	%xmm15, %xmm6
	paddd	%xmm1, %xmm6
	paddd	%xmm2, %xmm8
	paddd	%xmm7, %xmm6
	paddd	%xmm7, %xmm2
	psubd	-120(%rsp), %xmm2
	movdqa	%xmm6, %xmm5
	paddd	%xmm7, %xmm8
	paddd	%xmm3, %xmm5
	psubd	%xmm3, %xmm6
	movdqa	%xmm8, %xmm9
	paddd	%xmm7, %xmm1
	movdqa	%xmm2, %xmm3
	paddd	%xmm4, %xmm9
	psubd	%xmm15, %xmm1
	paddd	%xmm12, %xmm3
	psrad	$10, %xmm6
	psubd	%xmm4, %xmm8
	psubd	%xmm12, %xmm2
	movdqa	%xmm3, %xmm4
	movdqa	%xmm1, %xmm3
	psubd	%xmm11, %xmm1
	movdqa	%xmm0, %xmm15
	psrad	$10, %xmm2
	psrad	$10, %xmm1
	paddd	%xmm11, %xmm3
	movdqa	-56(%rsp), %xmm11
	psrad	$10, %xmm4
	psrad	$10, %xmm3
	packssdw	%xmm2, %xmm1
	movdqa	-88(%rsp), %xmm2
	psrad	$10, %xmm8
	psrad	$10, %xmm9
	packssdw	%xmm4, %xmm3
	paddd	%xmm7, %xmm2
	paddd	-72(%rsp), %xmm7
	movdqa	%xmm11, %xmm4
	psubd	-24(%rsp), %xmm2
	psubd	-104(%rsp), %xmm7
	packssdw	%xmm8, %xmm6
	psrad	$10, %xmm5
	movdqa	%xmm7, %xmm8
	paddd	%xmm2, %xmm4
	psubd	%xmm10, %xmm7
	psubd	%xmm11, %xmm2
	paddd	%xmm10, %xmm8
	psrad	$10, %xmm7
	psrad	$10, %xmm2
	psrad	$10, %xmm8
	packssdw	%xmm9, %xmm5
	packssdw	%xmm7, %xmm2
	psrad	$10, %xmm4
	movdqa	%xmm14, %xmm7
	packssdw	%xmm8, %xmm4
	punpcklwd	%xmm2, %xmm14
	punpckhwd	%xmm2, %xmm7
	movdqa	%xmm3, %xmm8
	movdqa	%xmm5, %xmm2
	movdqa	%xmm7, %xmm9
	punpcklwd	%xmm1, %xmm2
	punpcklwd	%xmm6, %xmm8
	punpckhwd	%xmm1, %xmm5
	movdqa	%xmm4, %xmm7
	movdqa	%xmm14, %xmm1
	punpckhwd	%xmm6, %xmm3
	punpcklwd	%xmm13, %xmm7
	punpcklwd	%xmm8, %xmm1
	punpckhwd	%xmm8, %xmm14
	movdqa	%xmm2, %xmm6
	movdqa	%xmm2, %xmm8
	movdqa	%xmm9, %xmm2
	punpckhwd	%xmm13, %xmm4
	punpcklwd	%xmm7, %xmm8
	punpckhwd	%xmm7, %xmm6
	punpcklwd	%xmm3, %xmm2
	punpckhwd	%xmm3, %xmm9
	movdqa	%xmm5, %xmm7
	movdqa	%xmm14, %xmm3
	punpcklwd	%xmm4, %xmm7
	punpckhwd	%xmm6, %xmm14
	punpcklwd	%xmm6, %xmm3
	movdqa	%xmm2, %xmm6
	punpckhwd	%xmm4, %xmm5
	punpcklwd	%xmm7, %xmm6
	punpckhwd	%xmm7, %xmm2
	movdqa	%xmm9, %xmm7
	punpcklwd	%xmm5, %xmm7
	punpckhwd	%xmm5, %xmm9
	movdqa	%xmm1, %xmm4
	movdqa	%xmm3, %xmm5
	punpcklwd	%xmm8, %xmm4
	punpckhwd	%xmm7, %xmm3
	punpcklwd	%xmm7, %xmm5
	punpckhwd	%xmm8, %xmm1
	movdqa	%xmm9, %xmm8
	movdqa	%xmm5, %xmm7
	movdqa	%xmm5, %xmm11
	movdqa	%xmm4, %xmm5
	paddw	%xmm6, %xmm5
	psubw	%xmm6, %xmm4
	movdqa	%xmm9, %xmm6
	punpcklwd	%xmm14, %xmm8
	punpckhwd	%xmm14, %xmm6
	movdqa	%xmm3, %xmm10
	pmaddwd	.LC30(%rip), %xmm7
	movdqa	%xmm3, %xmm12
	movdqa	%xmm0, %xmm3
	punpckhwd	%xmm5, %xmm15
	punpcklwd	%xmm5, %xmm3
	movdqa	%xmm4, %xmm5
	movaps	%xmm7, -120(%rsp)
	movdqa	%xmm6, %xmm7
	movdqa	%xmm8, %xmm6
	pmaddwd	.LC30(%rip), %xmm10
	movdqa	%xmm0, %xmm4
	movdqa	%xmm15, %xmm13
	punpckhwd	%xmm5, %xmm0
	movaps	%xmm10, -104(%rsp)
	punpcklwd	%xmm5, %xmm4
	pmaddwd	.LC32(%rip), %xmm6
	pmaddwd	.LC31(%rip), %xmm11
	psrad	$4, %xmm13
	movdqa	%xmm2, %xmm5
	pmaddwd	.LC31(%rip), %xmm12
	movdqa	%xmm6, %xmm10
	movdqa	%xmm7, %xmm6
	punpckhwd	%xmm1, %xmm5
	movaps	%xmm11, -88(%rsp)
	movaps	%xmm12, -72(%rsp)
	psrad	$4, %xmm3
	pmaddwd	.LC32(%rip), %xmm6
	pmaddwd	.LC33(%rip), %xmm8
	movaps	%xmm13, -56(%rsp)
	psrad	$4, %xmm4
	psrad	$4, %xmm0
	movdqa	.LC34(%rip), %xmm13
	movdqa	%xmm6, %xmm11
	movdqa	%xmm2, %xmm6
	paddw	%xmm14, %xmm2
	punpcklwd	%xmm1, %xmm6
	paddw	%xmm9, %xmm1
	pmaddwd	%xmm5, %xmm13
	movdqa	%xmm6, %xmm15
	pmaddwd	.LC35(%rip), %xmm5
	pmaddwd	.LC34(%rip), %xmm15
	pmaddwd	.LC35(%rip), %xmm6
	pmaddwd	.LC33(%rip), %xmm7
	movdqa	%xmm15, %xmm12
	movdqa	%xmm1, %xmm15
	punpckhwd	%xmm2, %xmm1
	punpcklwd	%xmm2, %xmm15
	movdqa	%xmm15, %xmm14
	movdqa	%xmm15, %xmm2
	pmaddwd	.LC36(%rip), %xmm14
	pmaddwd	.LC37(%rip), %xmm2
	movdqa	%xmm14, %xmm9
	movdqa	%xmm1, %xmm14
	pmaddwd	.LC36(%rip), %xmm14
	pmaddwd	.LC37(%rip), %xmm1
	paddd	%xmm2, %xmm8
	paddd	%xmm14, %xmm11
	paddd	%xmm5, %xmm14
	movdqa	-88(%rsp), %xmm5
	paddd	%xmm9, %xmm10
	paddd	%xmm2, %xmm12
	movdqa	-56(%rsp), %xmm2
	paddd	%xmm6, %xmm9
	movdqa	.LC39(%rip), %xmm6
	paddd	-72(%rsp), %xmm2
	paddd	%xmm3, %xmm5
	paddd	%xmm1, %xmm7
	paddd	%xmm6, %xmm5
	paddd	%xmm6, %xmm2
	paddd	%xmm1, %xmm13
	movdqa	%xmm2, %xmm15
	movdqa	%xmm5, %xmm1
	psubd	%xmm14, %xmm2
	psubd	%xmm9, %xmm5
	psrad	$17, %xmm2
	psrad	$17, %xmm5
	paddd	%xmm9, %xmm1
	movdqa	-104(%rsp), %xmm9
	packssdw	%xmm2, %xmm5
	movdqa	-120(%rsp), %xmm2
	paddd	%xmm14, %xmm15
	paddd	%xmm6, %xmm3
	paddd	%xmm0, %xmm9
	psrad	$17, %xmm15
	paddd	%xmm6, %xmm0
	paddd	%xmm4, %xmm2
	paddd	%xmm6, %xmm9
	psrad	$17, %xmm1
	paddd	%xmm6, %xmm2
	psubd	-104(%rsp), %xmm0
	packssdw	%xmm15, %xmm1
	paddd	%xmm6, %xmm4
	movdqa	%xmm9, %xmm15
	psubd	-120(%rsp), %xmm4
	movdqa	%xmm2, %xmm14
	paddd	%xmm7, %xmm15
	psubd	%xmm7, %xmm9
	paddd	%xmm8, %xmm14
	psubd	%xmm8, %xmm2
	movdqa	%xmm4, %xmm7
	movdqa	%xmm0, %xmm8
	psubd	%xmm12, %xmm4
	psubd	%xmm13, %xmm0
	psrad	$17, %xmm0
	psrad	$17, %xmm4
	psubd	-88(%rsp), %xmm3
	packssdw	%xmm0, %xmm4
	paddd	%xmm13, %xmm8
	movdqa	-56(%rsp), %xmm0
	paddd	%xmm12, %xmm7
	psrad	$17, %xmm8
	psrad	$17, %xmm7
	paddd	%xmm6, %xmm0
	psubd	-72(%rsp), %xmm0
	movdqa	%xmm3, %xmm6
	packssdw	%xmm8, %xmm7
	psrad	$17, %xmm15
	paddd	%xmm10, %xmm6
	movdqa	%xmm0, %xmm8
	psrad	$17, %xmm14
	psubd	%xmm11, %xmm0
	paddd	%xmm11, %xmm8
	psubd	%xmm10, %xmm3
	psrad	$17, %xmm0
	psrad	$17, %xmm8
	psrad	$17, %xmm6
	packssdw	%xmm15, %xmm14
	psrad	$17, %xmm3
	packuswb	%xmm14, %xmm1
	packssdw	%xmm8, %xmm6
	packssdw	%xmm0, %xmm3
	psrad	$17, %xmm9
	packuswb	%xmm6, %xmm7
	psrad	$17, %xmm2
	packuswb	%xmm4, %xmm3
	movdqa	%xmm1, %xmm0
	packssdw	%xmm9, %xmm2
	punpcklbw	%xmm3, %xmm0
	punpckhbw	%xmm3, %xmm1
	packuswb	%xmm5, %xmm2
	movdqa	%xmm7, %xmm3
	punpcklbw	%xmm2, %xmm3
	punpckhbw	%xmm2, %xmm7
	movdqa	%xmm0, %xmm2
	punpcklbw	%xmm3, %xmm2
	punpckhbw	%xmm3, %xmm0
	movdqa	%xmm1, %xmm3
	punpcklbw	%xmm7, %xmm3
	movdqa	%xmm2, %xmm4
	punpckhbw	%xmm7, %xmm1
	punpcklbw	%xmm3, %xmm4
	punpckhbw	%xmm3, %xmm2
	movdqa	%xmm0, %xmm3
	movq	%xmm4, (%rdi)
	pshufd	$78, %xmm4, %xmm4
	punpcklbw	%xmm1, %xmm3
	punpckhbw	%xmm1, %xmm0
	movq	%xmm4, (%rax)
	addq	%rsi, %rax
	movq	%xmm2, (%rax)
	addq	%rsi, %rax
	pshufd	$78, %xmm2, %xmm2
	movq	%xmm2, (%rax)
	addq	%rsi, %rax
	movq	%xmm3, (%rax)
	addq	%rsi, %rax
	pshufd	$78, %xmm3, %xmm3
	movq	%xmm3, (%rax)
	addq	%rsi, %rax
	movq	%xmm0, (%rax)
	pshufd	$78, %xmm0, %xmm0
	movq	%xmm0, (%rax,%rsi)
	ret
	.cfi_endproc
.LFE625:
	.size	stbi__idct_simd, .-stbi__idct_simd
	.p2align 4
	.type	stbi__hdr_convert, @function
stbi__hdr_convert:
.LFB734:
	.cfi_startproc
	pushq	%r12
	.cfi_def_cfa_offset 16
	.cfi_offset 12, -16
	movq	%rdi, %r12
	movzbl	3(%rsi), %edi
	pushq	%rbp
	.cfi_def_cfa_offset 24
	.cfi_offset 6, -24
	pushq	%rbx
	.cfi_def_cfa_offset 32
	.cfi_offset 3, -32
	movl	%edx, %ebx
	testb	%dil, %dil
	jne	.L679
	cmpl	$3, %edx
	je	.L668
	jg	.L669
	cmpl	$1, %edx
	je	.L670
	cmpl	$2, %edx
	jne	.L661
	movl	$0x3f800000, 4(%r12)
.L670:
	movl	$0x00000000, (%r12)
.L661:
	popq	%rbx
	.cfi_remember_state
	.cfi_def_cfa_offset 24
	popq	%rbp
	.cfi_def_cfa_offset 16
	popq	%r12
	.cfi_def_cfa_offset 8
	ret
	.p2align 4,,10
	.p2align 3
.L669:
	.cfi_restore_state
	cmpl	$4, %edx
	jne	.L661
	movl	$0x3f800000, 12(%r12)
.L668:
	movl	$0x00000000, 8(%r12)
	movq	$0, (%r12)
	popq	%rbx
	.cfi_remember_state
	.cfi_def_cfa_offset 24
	popq	%rbp
	.cfi_def_cfa_offset 16
	popq	%r12
	.cfi_def_cfa_offset 8
	ret
	.p2align 4,,10
	.p2align 3
.L679:
	.cfi_restore_state
	movsd	.LC40(%rip), %xmm0
	subl	$136, %edi
	movq	%rsi, %rbp
	call	ldexp@PLT
	movzbl	0(%rbp), %eax
	cvtsd2ss	%xmm0, %xmm0
	cmpl	$2, %ebx
	jg	.L663
	movzbl	1(%rbp), %edx
	pxor	%xmm1, %xmm1
	addl	%edx, %eax
	movzbl	2(%rbp), %edx
	addl	%edx, %eax
	cvtsi2ssl	%eax, %xmm1
	mulss	%xmm0, %xmm1
	divss	.LC41(%rip), %xmm1
	movss	%xmm1, (%r12)
	cmpl	$2, %ebx
	jne	.L661
	movl	$0x3f800000, 4(%r12)
	popq	%rbx
	.cfi_remember_state
	.cfi_def_cfa_offset 24
	popq	%rbp
	.cfi_def_cfa_offset 16
	popq	%r12
	.cfi_def_cfa_offset 8
	ret
	.p2align 4,,10
	.p2align 3
.L663:
	.cfi_restore_state
	pxor	%xmm1, %xmm1
	cvtsi2ssl	%eax, %xmm1
	mulss	%xmm0, %xmm1
	movss	%xmm1, (%r12)
	movzbl	1(%rbp), %eax
	pxor	%xmm1, %xmm1
	cvtsi2ssl	%eax, %xmm1
	mulss	%xmm0, %xmm1
	movss	%xmm1, 4(%r12)
	movzbl	2(%rbp), %eax
	pxor	%xmm1, %xmm1
	cvtsi2ssl	%eax, %xmm1
	mulss	%xmm0, %xmm1
	movss	%xmm1, 8(%r12)
	cmpl	$4, %ebx
	jne	.L661
	movl	$0x3f800000, 12(%r12)
	jmp	.L661
	.cfi_endproc
.LFE734:
	.size	stbi__hdr_convert, .-stbi__hdr_convert
	.p2align 4
	.type	stbi__stdio_write, @function
stbi__stdio_write:
.LFB761:
	.cfi_startproc
	movq	%rdi, %rcx
	movslq	%edx, %rdx
	movq	%rsi, %rdi
	movl	$1, %esi
	jmp	fwrite@PLT
	.cfi_endproc
.LFE761:
	.size	stbi__stdio_write, .-stbi__stdio_write
	.p2align 4
	.type	stbi__skip.part.0, @function
stbi__skip.part.0:
.LFB811:
	.cfi_startproc
	cmpq	$0, 16(%rdi)
	movq	192(%rdi), %rax
	je	.L682
	movq	200(%rdi), %rcx
	movq	%rcx, %rdx
	subq	%rax, %rdx
	cmpl	%esi, %edx
	jl	.L683
.L682:
	movslq	%esi, %rsi
	addq	%rsi, %rax
	movq	%rax, 192(%rdi)
	ret
	.p2align 4,,10
	.p2align 3
.L683:
	subl	%edx, %esi
	movq	40(%rdi), %rdx
	movq	%rcx, 192(%rdi)
	movq	24(%rdi), %rax
	movq	%rdx, %rdi
	jmp	*%rax
	.cfi_endproc
.LFE811:
	.size	stbi__skip.part.0, .-stbi__skip.part.0
	.p2align 4
	.type	stbi__resample_row_h_2, @function
stbi__resample_row_h_2:
.LFB640:
	.cfi_startproc
	movzbl	(%rsi), %eax
	cmpl	$1, %ecx
	je	.L715
	pushq	%r12
	.cfi_def_cfa_offset 16
	.cfi_offset 12, -16
	movl	%ecx, %r8d
	leal	(%rax,%rax,2), %ecx
	movq	%rsi, %rdx
	pushq	%rbp
	.cfi_def_cfa_offset 24
	.cfi_offset 6, -24
	leal	-1(%r8), %r9d
	pushq	%rbx
	.cfi_def_cfa_offset 32
	.cfi_offset 3, -32
	movb	%al, (%rdi)
	movzbl	1(%rsi), %eax
	leal	2(%rcx,%rax), %eax
	sarl	$2, %eax
	movb	%al, 1(%rdi)
	cmpl	$2, %r8d
	jle	.L698
	leal	-3(%r8), %esi
	cmpl	$6, %esi
	jbe	.L688
	movl	%r9d, %eax
	leaq	2(%rdi), %rcx
	leaq	(%rdi,%rax,2), %rax
	cmpq	%rax, %rdx
	jnb	.L699
	movl	%r8d, %eax
	addq	%rdx, %rax
	cmpq	%rax, %rcx
	jnb	.L699
.L688:
	movl	%r9d, %r10d
	movl	$1, %eax
	.p2align 4,,10
	.p2align 3
.L695:
	movzbl	(%rdx,%rax), %ecx
	leal	2(%rcx,%rcx,2), %esi
	movzbl	-1(%rdx,%rax), %ecx
	addl	%esi, %ecx
	sarl	$2, %ecx
	movb	%cl, (%rdi,%rax,2)
	movzbl	1(%rdx,%rax), %ecx
	addl	%esi, %ecx
	sarl	$2, %ecx
	movb	%cl, 1(%rdi,%rax,2)
	addq	$1, %rax
	cmpq	%rax, %r10
	jne	.L695
.L696:
	addl	%r9d, %r9d
	movslq	%r9d, %r9
	leaq	1(%r9), %rsi
.L687:
	movslq	%r8d, %r8
	popq	%rbx
	.cfi_remember_state
	.cfi_def_cfa_offset 24
	popq	%rbp
	.cfi_def_cfa_offset 16
	movzbl	-2(%rdx,%r8), %eax
	leaq	-1(%rdx,%r8), %rcx
	popq	%r12
	.cfi_def_cfa_offset 8
	leal	(%rax,%rax,2), %edx
	movzbl	(%rcx), %eax
	leal	2(%rdx,%rax), %eax
	sarl	$2, %eax
	movb	%al, (%rdi,%r9)
	movzbl	(%rcx), %eax
	movb	%al, (%rdi,%rsi)
	movq	%rdi, %rax
	ret
	.p2align 4,,10
	.p2align 3
.L699:
	.cfi_restore_state
	cmpl	$14, %esi
	jbe	.L690
	leal	-2(%r8), %r11d
	movq	%rdx, %rax
	pxor	%xmm4, %xmm4
	movdqa	.LC1(%rip), %xmm7
	movl	%r11d, %esi
	movdqa	.LC2(%rip), %xmm5
	movdqa	.LC5(%rip), %xmm6
	shrl	$4, %esi
	salq	$4, %rsi
	addq	%rdx, %rsi
	.p2align 4,,10
	.p2align 3
.L691:
	movdqu	1(%rax), %xmm2
	movdqu	(%rax), %xmm3
	addq	$16, %rax
	addq	$32, %rcx
	movdqa	%xmm2, %xmm1
	punpckhbw	%xmm4, %xmm2
	movdqa	%xmm3, %xmm0
	punpcklbw	%xmm4, %xmm1
	pmullw	%xmm6, %xmm2
	punpcklbw	%xmm4, %xmm0
	pmullw	%xmm6, %xmm1
	punpckhbw	%xmm4, %xmm3
	paddw	%xmm7, %xmm2
	paddw	%xmm7, %xmm1
	paddw	%xmm2, %xmm3
	paddw	%xmm1, %xmm0
	psrlw	$2, %xmm3
	psrlw	$2, %xmm0
	pand	%xmm5, %xmm3
	pand	%xmm5, %xmm0
	packuswb	%xmm3, %xmm0
	movdqu	-14(%rax), %xmm3
	movdqa	%xmm3, %xmm8
	punpckhbw	%xmm4, %xmm3
	punpcklbw	%xmm4, %xmm8
	paddw	%xmm3, %xmm2
	paddw	%xmm8, %xmm1
	psrlw	$2, %xmm2
	psrlw	$2, %xmm1
	pand	%xmm5, %xmm2
	pand	%xmm5, %xmm1
	packuswb	%xmm2, %xmm1
	movdqa	%xmm0, %xmm2
	punpcklbw	%xmm1, %xmm2
	punpckhbw	%xmm1, %xmm0
	movups	%xmm2, -32(%rcx)
	movups	%xmm0, -16(%rcx)
	cmpq	%rsi, %rax
	jne	.L691
	movl	%r11d, %r10d
	andl	$-16, %r10d
	andl	$15, %r11d
	leal	1(%r10), %eax
	je	.L696
	movl	%r8d, %ecx
	subl	%r10d, %ecx
	leal	-2(%rcx), %esi
	subl	$3, %ecx
	cmpl	$6, %ecx
	jbe	.L693
.L697:
	movq	1(%rdx,%r10), %xmm1
	pxor	%xmm5, %xmm5
	movq	.LC3(%rip), %xmm3
	leaq	2(%rdi,%r10,2), %rcx
	movq	.LC4(%rip), %xmm4
	movdqa	%xmm1, %xmm2
	punpcklbw	%xmm5, %xmm1
	punpcklbw	%xmm5, %xmm2
	pshufd	$78, %xmm1, %xmm1
	movdqa	%xmm2, %xmm0
	psllw	$1, %xmm0
	paddw	%xmm2, %xmm0
	movdqa	%xmm1, %xmm2
	psllw	$1, %xmm2
	paddw	%xmm1, %xmm2
	paddw	%xmm3, %xmm0
	paddw	%xmm3, %xmm2
	movq	(%rdx,%r10), %xmm3
	movdqa	%xmm3, %xmm1
	punpcklbw	%xmm5, %xmm3
	punpcklbw	%xmm5, %xmm1
	pshufd	$78, %xmm3, %xmm3
	paddw	%xmm0, %xmm1
	paddw	%xmm2, %xmm3
	psrlw	$2, %xmm1
	psrlw	$2, %xmm3
	pand	%xmm4, %xmm3
	pand	%xmm4, %xmm1
	packuswb	%xmm3, %xmm1
	movq	2(%rdx,%r10), %xmm3
	pshufd	$8, %xmm1, %xmm1
	movdqa	%xmm3, %xmm6
	punpcklbw	%xmm5, %xmm3
	punpcklbw	%xmm5, %xmm6
	pshufd	$78, %xmm3, %xmm3
	paddw	%xmm6, %xmm0
	paddw	%xmm3, %xmm2
	psrlw	$2, %xmm0
	psrlw	$2, %xmm2
	pand	%xmm4, %xmm0
	pand	%xmm2, %xmm4
	movdqa	%xmm1, %xmm2
	packuswb	%xmm4, %xmm0
	pshufd	$8, %xmm0, %xmm0
	punpcklbw	%xmm0, %xmm1
	punpcklbw	%xmm0, %xmm2
	pshufd	$78, %xmm1, %xmm1
	movq	%xmm2, (%rcx)
	movq	%xmm1, 8(%rcx)
	movl	%esi, %ecx
	andl	$-8, %ecx
	addl	%ecx, %eax
	andl	$7, %esi
	je	.L696
.L693:
	movslq	%eax, %r10
	leaq	(%rdx,%r10), %rbx
	movzbl	-1(%rdx,%r10), %esi
	leaq	1(%rdx,%r10), %rbp
	movzbl	(%rbx), %ecx
	leal	2(%rcx,%rcx,2), %r12d
	leal	(%rax,%rax), %ecx
	addl	%r12d, %esi
	movslq	%ecx, %r11
	sarl	$2, %esi
	movb	%sil, (%rdi,%r11)
	movzbl	0(%rbp), %esi
	addl	%r12d, %esi
	sarl	$2, %esi
	movb	%sil, 1(%rdi,%r11)
	leal	1(%rax), %esi
	cmpl	%esi, %r9d
	jle	.L696
	movzbl	0(%rbp), %esi
	leal	2(%rcx), %r11d
	movslq	%r11d, %r11
	leal	2(%rsi,%rsi,2), %r12d
	movzbl	(%rbx), %esi
	addl	%r12d, %esi
	sarl	$2, %esi
	movb	%sil, (%rdi,%r11)
	movzbl	2(%rdx,%r10), %esi
	addl	%r12d, %esi
	sarl	$2, %esi
	movb	%sil, 1(%rdi,%r11)
	leal	2(%rax), %esi
	cmpl	%esi, %r9d
	jle	.L696
	movslq	%esi, %rsi
	leal	4(%rcx), %r11d
	movzbl	(%rdx,%rsi), %r10d
	movslq	%r11d, %r11
	leal	2(%r10,%r10,2), %ebx
	movzbl	0(%rbp), %r10d
	addl	%ebx, %r10d
	sarl	$2, %r10d
	movb	%r10b, (%rdi,%r11)
	movzbl	1(%rdx,%rsi), %esi
	addl	%ebx, %esi
	sarl	$2, %esi
	movb	%sil, 1(%rdi,%r11)
	leal	3(%rax), %esi
	cmpl	%esi, %r9d
	jle	.L696
	movslq	%esi, %rsi
	leal	6(%rcx), %r11d
	movzbl	(%rdx,%rsi), %r10d
	movslq	%r11d, %r11
	leal	2(%r10,%r10,2), %ebx
	movzbl	-1(%rdx,%rsi), %r10d
	addl	%ebx, %r10d
	sarl	$2, %r10d
	movb	%r10b, (%rdi,%r11)
	movzbl	1(%rdx,%rsi), %esi
	addl	%ebx, %esi
	sarl	$2, %esi
	movb	%sil, 1(%rdi,%r11)
	leal	4(%rax), %esi
	cmpl	%esi, %r9d
	jle	.L696
	movslq	%esi, %rsi
	leal	8(%rcx), %r11d
	movzbl	(%rdx,%rsi), %r10d
	movslq	%r11d, %r11
	leal	2(%r10,%r10,2), %ebx
	movzbl	-1(%rdx,%rsi), %r10d
	addl	%ebx, %r10d
	sarl	$2, %r10d
	movb	%r10b, (%rdi,%r11)
	movzbl	1(%rdx,%rsi), %esi
	addl	%ebx, %esi
	sarl	$2, %esi
	movb	%sil, 1(%rdi,%r11)
	leal	5(%rax), %esi
	cmpl	%esi, %r9d
	jle	.L696
	movslq	%esi, %rsi
	leal	10(%rcx), %r11d
	addl	$6, %eax
	movzbl	(%rdx,%rsi), %r10d
	movslq	%r11d, %r11
	leal	2(%r10,%r10,2), %ebx
	movzbl	-1(%rdx,%rsi), %r10d
	addl	%ebx, %r10d
	sarl	$2, %r10d
	movb	%r10b, (%rdi,%r11)
	movzbl	1(%rdx,%rsi), %esi
	addl	%ebx, %esi
	sarl	$2, %esi
	movb	%sil, 1(%rdi,%r11)
	cmpl	%eax, %r9d
	jle	.L696
	cltq
	addl	$12, %ecx
	movzbl	(%rdx,%rax), %esi
	movslq	%ecx, %rcx
	leal	2(%rsi,%rsi,2), %r10d
	movzbl	-1(%rdx,%rax), %esi
	addl	%r10d, %esi
	sarl	$2, %esi
	movb	%sil, (%rdi,%rcx)
	movzbl	1(%rdx,%rax), %eax
	addl	%r10d, %eax
	sarl	$2, %eax
	movb	%al, 1(%rdi,%rcx)
	jmp	.L696
	.p2align 4,,10
	.p2align 3
.L715:
	.cfi_def_cfa_offset 8
	.cfi_restore 3
	.cfi_restore 6
	.cfi_restore 12
	movzbl	%al, %edx
	movb	%al, %dh
	movq	%rdi, %rax
	movw	%dx, (%rdi)
	ret
	.p2align 4,,10
	.p2align 3
.L698:
	.cfi_def_cfa_offset 32
	.cfi_offset 3, -32
	.cfi_offset 6, -24
	.cfi_offset 12, -16
	movl	$3, %esi
	movl	$2, %r9d
	jmp	.L687
.L690:
	leal	-2(%r8), %esi
	xorl	%r10d, %r10d
	movl	$1, %eax
	jmp	.L697
	.cfi_endproc
.LFE640:
	.size	stbi__resample_row_h_2, .-stbi__resample_row_h_2
	.section	.rodata.str1.1
.LC44:
	.string	"p"
	.text
	.p2align 4
	.type	stbiw__sbgrowf.part.0, @function
stbiw__sbgrowf.part.0:
.LFB819:
	.cfi_startproc
	subq	$8, %rsp
	.cfi_def_cfa_offset 16
	leaq	__PRETTY_FUNCTION__.22(%rip), %rcx
	movl	$844, %edx
	leaq	.LC10(%rip), %rsi
	leaq	.LC44(%rip), %rdi
	call	__assert_fail@PLT
	.cfi_endproc
.LFE819:
	.size	stbiw__sbgrowf.part.0, .-stbiw__sbgrowf.part.0
	.section	.rodata.str1.1
.LC45:
	.string	"111 221 2222 11"
	.text
	.p2align 4
	.type	stbiw__writef.constprop.0, @function
stbiw__writef.constprop.0:
.LFB830:
	.cfi_startproc
	subq	$216, %rsp
	.cfi_def_cfa_offset 224
	movq	%rdx, 48(%rsp)
	movq	%rcx, 56(%rsp)
	movq	%r8, 64(%rsp)
	movq	%r9, 72(%rsp)
	testb	%al, %al
	je	.L719
	movaps	%xmm0, 80(%rsp)
	movaps	%xmm1, 96(%rsp)
	movaps	%xmm2, 112(%rsp)
	movaps	%xmm3, 128(%rsp)
	movaps	%xmm4, 144(%rsp)
	movaps	%xmm5, 160(%rsp)
	movaps	%xmm6, 176(%rsp)
	movaps	%xmm7, 192(%rsp)
.L719:
	movq	%fs:40, %rax
	movq	%rax, 24(%rsp)
	xorl	%eax, %eax
	leaq	224(%rsp), %rax
	movq	%rsp, %rdx
	leaq	.LC45(%rip), %rsi
	movq	%rax, 8(%rsp)
	leaq	32(%rsp), %rax
	movq	%rax, 16(%rsp)
	movl	$16, (%rsp)
	movl	$48, 4(%rsp)
	call	stbiw__writefv
	movq	24(%rsp), %rax
	subq	%fs:40, %rax
	jne	.L722
	addq	$216, %rsp
	.cfi_remember_state
	.cfi_def_cfa_offset 8
	ret
.L722:
	.cfi_restore_state
	call	__stack_chk_fail@PLT
	.cfi_endproc
.LFE830:
	.size	stbiw__writef.constprop.0, .-stbiw__writef.constprop.0
	.p2align 4
	.type	stbi__free_jpeg_components.constprop.0, @function
stbi__free_jpeg_components.constprop.0:
.LFB831:
	.cfi_startproc
	testl	%esi, %esi
	jle	.L740
	pushq	%rbp
	.cfi_def_cfa_offset 16
	.cfi_offset 6, -16
	movslq	%esi, %rsi
	pushq	%rbx
	.cfi_def_cfa_offset 24
	.cfi_offset 3, -24
	leaq	(%rsi,%rsi,2), %rbp
	movq	%rdi, %rbx
	salq	$5, %rbp
	addq	%rdi, %rbp
	subq	$8, %rsp
	.cfi_def_cfa_offset 32
.L728:
	movq	18136(%rbx), %rdi
	testq	%rdi, %rdi
	je	.L725
	call	free@PLT
	pxor	%xmm0, %xmm0
	movups	%xmm0, 18128(%rbx)
.L725:
	movq	18144(%rbx), %rdi
	testq	%rdi, %rdi
	je	.L726
	call	free@PLT
	movq	$0, 18144(%rbx)
	movq	$0, 18160(%rbx)
.L726:
	movq	18152(%rbx), %rdi
	testq	%rdi, %rdi
	je	.L727
	call	free@PLT
	movq	$0, 18152(%rbx)
.L727:
	addq	$96, %rbx
	cmpq	%rbp, %rbx
	jne	.L728
	addq	$8, %rsp
	.cfi_def_cfa_offset 24
	xorl	%eax, %eax
	popq	%rbx
	.cfi_def_cfa_offset 16
	popq	%rbp
	.cfi_def_cfa_offset 8
	ret
	.p2align 4,,10
	.p2align 3
.L740:
	.cfi_restore 3
	.cfi_restore 6
	xorl	%eax, %eax
	ret
	.cfi_endproc
.LFE831:
	.size	stbi__free_jpeg_components.constprop.0, .-stbi__free_jpeg_components.constprop.0
	.section	.rodata.str1.8
	.align 8
.LC46:
	.string	"EXPOSURE=          1.0000000000000\n\n-Y %d +X %d\n"
	.text
	.p2align 4
	.type	stbi_write_hdr_core.part.0, @function
stbi_write_hdr_core.part.0:
.LFB821:
	.cfi_startproc
	pushq	%r15
	.cfi_def_cfa_offset 16
	.cfi_offset 15, -16
	pushq	%r14
	.cfi_def_cfa_offset 24
	.cfi_offset 14, -24
	movl	%edx, %r14d
	pushq	%r13
	.cfi_def_cfa_offset 32
	.cfi_offset 13, -32
	pushq	%r12
	.cfi_def_cfa_offset 40
	.cfi_offset 12, -40
	pushq	%rbp
	.cfi_def_cfa_offset 48
	.cfi_offset 6, -48
	movslq	%ecx, %rbp
	pushq	%rbx
	.cfi_def_cfa_offset 56
	.cfi_offset 3, -56
	movq	%rdi, %rbx
	leal	0(,%rsi,4), %edi
	movslq	%edi, %rdi
	subq	$360, %rsp
	.cfi_def_cfa_offset 416
	movq	%r8, 64(%rsp)
	leaq	208(%rsp), %r12
	movl	%edx, 36(%rsp)
	movq	%fs:40, %rax
	movq	%rax, 344(%rsp)
	xorl	%eax, %eax
	movl	%esi, (%rsp)
	call	malloc@PLT
	movl	$10, %ecx
	movdqa	.LC49(%rip), %xmm0
	movq	8(%rbx), %rdi
	movq	%rax, 48(%rsp)
	leaq	128(%rsp), %rsi
	movl	$65, %edx
	movaps	%xmm0, 128(%rsp)
	movdqa	.LC50(%rip), %xmm0
	movw	%cx, 192(%rsp)
	movaps	%xmm0, 144(%rsp)
	movdqa	.LC51(%rip), %xmm0
	movaps	%xmm0, 160(%rsp)
	movdqa	.LC52(%rip), %xmm0
	movaps	%xmm0, 176(%rsp)
	call	*(%rbx)
	movl	(%rsp), %ecx
	movl	%r14d, %edx
	leaq	.LC46(%rip), %rsi
	movq	%r12, %rdi
	xorl	%eax, %eax
	call	sprintf@PLT
	movq	8(%rbx), %rdi
	movq	%r12, %rsi
	movl	%eax, %edx
	call	*(%rbx)
	testl	%r14d, %r14d
	movl	(%rsp), %r11d
	jle	.L750
	movl	%r11d, %eax
	movl	$1, 32(%rsp)
	movl	32(%rsp), %ecx
	movl	%r11d, %r9d
	imull	%ebp, %eax
	leaq	0(,%rbp,4), %r14
	movl	%eax, 60(%rsp)
	leal	-8(%r11), %eax
	movl	%eax, 72(%rsp)
	leal	-3(%rbp), %eax
	movl	%eax, 28(%rsp)
	leal	(%r11,%r11), %eax
	movl	%eax, 76(%rsp)
	addl	%r11d, %eax
	movl	%eax, 104(%rsp)
.L749:
	movl	36(%rsp), %eax
	movl	stbi__flip_vertically_on_write(%rip), %edx
	subl	%ecx, %eax
	testl	%edx, %edx
	jne	.L746
	leal	-1(%rcx), %eax
.L746:
	movl	60(%rsp), %ecx
	movl	$514, 124(%rsp)
	imull	%ecx, %eax
	movq	64(%rsp), %rcx
	cltq
	leaq	(%rcx,%rax,4), %rbp
	movl	%r9d, %eax
	rolw	$8, %ax
	cmpl	$32759, 72(%rsp)
	movw	%ax, 126(%rsp)
	jbe	.L747
	testl	%r9d, %r9d
	jle	.L757
	movq	%rbp, %r12
	xorl	%r15d, %r15d
	leaq	120(%rsp), %rbp
	movl	%r9d, %r13d
	jmp	.L758
.L785:
	movss	.LC47(%rip), %xmm5
	movaps	%xmm1, %xmm2
	movaps	%xmm1, %xmm4
	movaps	%xmm1, %xmm3
	comiss	%xmm2, %xmm5
	jbe	.L804
.L814:
	movl	$0, 120(%rsp)
.L812:
	addl	$1, %r15d
	movq	8(%rbx), %rdi
	movl	$4, %edx
	movq	%rbp, %rsi
	call	*(%rbx)
	addq	%r14, %r12
	cmpl	%r15d, %r13d
	je	.L813
.L758:
	cmpl	$1, 28(%rsp)
	movss	(%r12), %xmm1
	ja	.L785
	movss	4(%r12), %xmm3
	movss	8(%r12), %xmm4
	movaps	%xmm1, %xmm7
	movss	.LC47(%rip), %xmm5
	movaps	%xmm3, %xmm2
	maxss	%xmm4, %xmm2
	maxss	%xmm2, %xmm7
	movaps	%xmm7, %xmm2
	comiss	%xmm2, %xmm5
	ja	.L814
.L804:
	leaq	116(%rsp), %rdi
	pxor	%xmm0, %xmm0
	movss	%xmm1, 24(%rsp)
	movss	%xmm3, 16(%rsp)
	cvtss2sd	%xmm2, %xmm0
	movss	%xmm4, 8(%rsp)
	movss	%xmm2, (%rsp)
	call	frexp@PLT
	movss	(%rsp), %xmm2
	movzbl	116(%rsp), %eax
	cvtsd2ss	%xmm0, %xmm0
	mulss	.LC48(%rip), %xmm0
	movss	24(%rsp), %xmm1
	movss	16(%rsp), %xmm3
	movss	8(%rsp), %xmm4
	addl	$-128, %eax
	movzbl	%al, %eax
	sall	$8, %eax
	divss	%xmm2, %xmm0
	mulss	%xmm0, %xmm1
	mulss	%xmm0, %xmm3
	mulss	%xmm4, %xmm0
	cvttss2sil	%xmm1, %edx
	cvttss2sil	%xmm3, %ecx
	cvttss2sil	%xmm0, %esi
	movzbl	%dl, %edx
	movzbl	%cl, %ecx
	movzbl	%sil, %esi
	orl	%esi, %eax
	sall	$8, %eax
	orl	%ecx, %eax
	sall	$8, %eax
	orl	%edx, %eax
	movl	%eax, 120(%rsp)
	jmp	.L812
.L813:
	movl	%r13d, %r9d
.L757:
	movl	32(%rsp), %ecx
	leal	1(%rcx), %eax
	cmpl	%ecx, 36(%rsp)
	je	.L750
.L784:
	movl	%eax, 32(%rsp)
	movl	%eax, %ecx
	jmp	.L749
.L747:
	movq	48(%rsp), %r15
	movslq	%r9d, %rax
	movl	104(%rsp), %r8d
	movq	%rbx, 96(%rsp)
	movq	%rax, 80(%rsp)
	movl	28(%rsp), %ebx
	movq	%rax, %r12
	leaq	(%rax,%r15), %rcx
	movq	%r8, %r13
	movq	%r15, 88(%rsp)
	movq	%rcx, (%rsp)
	movl	76(%rsp), %ecx
	movl	%r9d, 108(%rsp)
	movq	%rcx, %r8
	jmp	.L763
.L787:
	movss	.LC47(%rip), %xmm6
	movaps	%xmm1, %xmm2
	movaps	%xmm1, %xmm3
	movaps	%xmm1, %xmm4
	comiss	%xmm2, %xmm6
	jbe	.L815
.L789:
	xorl	%eax, %eax
	xorl	%edx, %edx
	xorl	%ecx, %ecx
	xorl	%esi, %esi
	xorl	%edi, %edi
.L762:
	movb	%dil, (%r15)
	addq	%r14, %rbp
	addq	$1, %r15
	movb	%sil, -1(%r15,%r12)
	movl	%eax, 120(%rsp)
	movb	%cl, -1(%r15,%r8)
	movb	%dl, -1(%r15,%r13)
	cmpq	%r15, (%rsp)
	je	.L816
.L763:
	movss	0(%rbp), %xmm1
	cmpl	$1, %ebx
	ja	.L787
	movss	4(%rbp), %xmm3
	movss	8(%rbp), %xmm4
	movaps	%xmm1, %xmm7
	movss	.LC47(%rip), %xmm6
	movaps	%xmm3, %xmm2
	maxss	%xmm4, %xmm2
	maxss	%xmm2, %xmm7
	movaps	%xmm7, %xmm2
	comiss	%xmm2, %xmm6
	ja	.L789
.L815:
	leaq	116(%rsp), %rdi
	pxor	%xmm0, %xmm0
	movq	%r8, 40(%rsp)
	movss	%xmm1, 56(%rsp)
	cvtss2sd	%xmm2, %xmm0
	movss	%xmm3, 24(%rsp)
	movss	%xmm4, 16(%rsp)
	movss	%xmm2, 8(%rsp)
	call	frexp@PLT
	movss	8(%rsp), %xmm2
	movzbl	116(%rsp), %eax
	cvtsd2ss	%xmm0, %xmm0
	mulss	.LC48(%rip), %xmm0
	movss	56(%rsp), %xmm1
	movss	24(%rsp), %xmm3
	movss	16(%rsp), %xmm4
	leal	-128(%rax), %edx
	movzbl	%dl, %eax
	movq	40(%rsp), %r8
	sall	$8, %eax
	divss	%xmm2, %xmm0
	mulss	%xmm0, %xmm1
	mulss	%xmm0, %xmm3
	mulss	%xmm4, %xmm0
	cvttss2sil	%xmm1, %r9d
	cvttss2sil	%xmm3, %r10d
	cvttss2sil	%xmm0, %r11d
	movl	%r9d, %edi
	movzbl	%r9b, %r9d
	movl	%r10d, %esi
	movzbl	%r10b, %r10d
	movl	%r11d, %ecx
	movzbl	%r11b, %r11d
	orl	%r11d, %eax
	sall	$8, %eax
	orl	%r10d, %eax
	sall	$8, %eax
	orl	%r9d, %eax
	jmp	.L762
.L816:
	movq	96(%rsp), %rbx
	movl	108(%rsp), %r9d
	leaq	124(%rsp), %rsi
	movl	$4, %edx
	movq	88(%rsp), %r12
	movl	$4, %r13d
	movl	%r9d, 8(%rsp)
	movq	8(%rbx), %rdi
	call	*(%rbx)
	leaq	116(%rsp), %rax
	movl	%r13d, 56(%rsp)
	movl	8(%rsp), %r9d
	movq	%rax, (%rsp)
	movq	%r14, 40(%rsp)
	movq	%rbx, %r14
	movq	80(%rsp), %rbx
.L782:
	xorl	%r15d, %r15d
	movq	%r14, %r13
	movl	%r9d, %eax
	movl	%r15d, %r14d
	movq	%rbx, %r15
	.p2align 4,,10
	.p2align 3
.L773:
	cmpl	%r14d, %eax
	jle	.L780
.L818:
	movslq	%r14d, %rbx
	leal	2(%r14), %edx
	movl	%r14d, %ebp
	leaq	(%r12,%rbx), %rsi
	cmpl	%edx, %eax
	jg	.L767
	jmp	.L768
	.p2align 4,,10
	.p2align 3
.L765:
	addl	$1, %edx
	addl	$1, %ebp
	addq	$1, %rsi
	cmpl	%edx, %eax
	je	.L768
.L767:
	movzbl	(%rsi), %ecx
	cmpb	1(%rsi), %cl
	jne	.L765
	cmpb	2(%rsi), %cl
	jne	.L765
	cmpl	%edx, %eax
	jle	.L768
	leal	2(%rbp), %edx
	cmpl	%ebp, %r14d
	jge	.L771
.L807:
	movq	%r13, %rcx
	movl	%edx, 8(%rsp)
	movl	%r14d, %r13d
	movq	%r15, 16(%rsp)
	movq	%rcx, %r14
	movl	%eax, 24(%rsp)
	jmp	.L770
	.p2align 4,,10
	.p2align 3
.L817:
	movslq	%r13d, %rbx
.L770:
	movl	%ebp, %r15d
	movl	$128, %edx
	movq	8(%r14), %rdi
	movq	(%rsp), %rsi
	subl	%r13d, %r15d
	cmpl	%edx, %r15d
	cmovg	%edx, %r15d
	addq	%r12, %rbx
	movl	$1, %edx
	addl	%r15d, %r13d
	movb	%r15b, 116(%rsp)
	call	*(%r14)
	movq	8(%r14), %rdi
	movl	%r15d, %edx
	movq	%rbx, %rsi
	call	*(%r14)
	cmpl	%ebp, %r13d
	jl	.L817
	movq	%r14, %rcx
	movl	8(%rsp), %edx
	movq	16(%rsp), %r15
	movl	%r13d, %r14d
	movl	24(%rsp), %eax
	movq	%rcx, %r13
.L771:
	cmpl	%edx, %eax
	jle	.L773
	cmpl	%ebp, %eax
	jle	.L775
	movslq	%r14d, %rbx
	movslq	%ebp, %rdx
	movzbl	(%r12,%rbx), %esi
	addq	%r12, %rdx
	jmp	.L776
	.p2align 4,,10
	.p2align 3
.L779:
	addl	$1, %ebp
	addq	$1, %rdx
	cmpl	%ebp, %eax
	je	.L775
.L776:
	cmpb	%sil, (%rdx)
	je	.L779
.L775:
	leaq	115(%rsp), %rsi
	cmpl	%r14d, %ebp
	jle	.L773
	movl	%eax, 16(%rsp)
	movq	%r15, 8(%rsp)
	movq	%r12, %r15
	movq	%rsi, %r12
	.p2align 4,,10
	.p2align 3
.L777:
	movl	%ebp, %ebx
	movl	$127, %edx
	movq	8(%r13), %rdi
	movq	(%rsp), %rsi
	subl	%r14d, %ebx
	cmpl	%edx, %ebx
	cmovg	%edx, %ebx
	movslq	%r14d, %rdx
	movzbl	(%r15,%rdx), %edx
	addl	%ebx, %r14d
	movb	%dl, 115(%rsp)
	leal	-128(%rbx), %edx
	movb	%dl, 116(%rsp)
	movl	$1, %edx
	call	*0(%r13)
	movq	8(%r13), %rdi
	movl	$1, %edx
	movq	%r12, %rsi
	call	*0(%r13)
	cmpl	%ebp, %r14d
	jl	.L777
	movl	16(%rsp), %eax
	movq	%r15, %r12
	movq	8(%rsp), %r15
	cmpl	%r14d, %eax
	jg	.L818
.L780:
	addq	%r15, %r12
	subl	$1, 56(%rsp)
	movq	%r15, %rbx
	movq	%r13, %r14
	movl	%eax, %r9d
	jne	.L782
	movl	32(%rsp), %ecx
	movq	40(%rsp), %r14
	movq	%r13, %rbx
	leal	1(%rcx), %eax
	cmpl	%ecx, 36(%rsp)
	jne	.L784
.L750:
	movq	48(%rsp), %rdi
	call	free@PLT
	movq	344(%rsp), %rax
	subq	%fs:40, %rax
	jne	.L819
	addq	$360, %rsp
	.cfi_remember_state
	.cfi_def_cfa_offset 56
	movl	$1, %eax
	popq	%rbx
	.cfi_def_cfa_offset 48
	popq	%rbp
	.cfi_def_cfa_offset 40
	popq	%r12
	.cfi_def_cfa_offset 32
	popq	%r13
	.cfi_def_cfa_offset 24
	popq	%r14
	.cfi_def_cfa_offset 16
	popq	%r15
	.cfi_def_cfa_offset 8
	ret
	.p2align 4,,10
	.p2align 3
.L768:
	.cfi_restore_state
	leal	2(%rax), %edx
	movl	%eax, %ebp
	jmp	.L807
.L819:
	call	__stack_chk_fail@PLT
	.cfi_endproc
.LFE821:
	.size	stbi_write_hdr_core.part.0, .-stbi_write_hdr_core.part.0
	.p2align 4
	.type	stbiw__outfile.constprop.0, @function
stbiw__outfile.constprop.0:
.LFB833:
	.cfi_startproc
	pushq	%r15
	.cfi_def_cfa_offset 16
	.cfi_offset 15, -16
	pushq	%r14
	.cfi_def_cfa_offset 24
	.cfi_offset 14, -24
	pushq	%r13
	.cfi_def_cfa_offset 32
	.cfi_offset 13, -32
	pushq	%r12
	.cfi_def_cfa_offset 40
	.cfi_offset 12, -40
	movl	%r9d, %r12d
	pushq	%rbp
	.cfi_def_cfa_offset 48
	.cfi_offset 6, -48
	pushq	%rbx
	.cfi_def_cfa_offset 56
	.cfi_offset 3, -56
	movq	%rdi, %rbx
	subq	$280, %rsp
	.cfi_def_cfa_offset 336
	movl	%ecx, (%rsp)
	movq	344(%rsp), %rcx
	movl	%r8d, 12(%rsp)
	movq	368(%rsp), %rsi
	movq	%rcx, 24(%rsp)
	testb	%al, %al
	je	.L821
	movaps	%xmm0, 144(%rsp)
	movaps	%xmm1, 160(%rsp)
	movaps	%xmm2, 176(%rsp)
	movaps	%xmm3, 192(%rsp)
	movaps	%xmm4, 208(%rsp)
	movaps	%xmm5, 224(%rsp)
	movaps	%xmm6, 240(%rsp)
	movaps	%xmm7, 256(%rsp)
.L821:
	movq	%fs:40, %rax
	movq	%rax, 88(%rsp)
	xorl	%eax, %eax
	movl	12(%rsp), %ecx
	orl	(%rsp), %ecx
	jns	.L860
.L820:
	movq	88(%rsp), %rdx
	subq	%fs:40, %rdx
	jne	.L861
	addq	$280, %rsp
	.cfi_remember_state
	.cfi_def_cfa_offset 56
	popq	%rbx
	.cfi_def_cfa_offset 48
	popq	%rbp
	.cfi_def_cfa_offset 40
	popq	%r12
	.cfi_def_cfa_offset 32
	popq	%r13
	.cfi_def_cfa_offset 24
	popq	%r14
	.cfi_def_cfa_offset 16
	popq	%r15
	.cfi_def_cfa_offset 8
	ret
	.p2align 4,,10
	.p2align 3
.L860:
	.cfi_restore_state
	leaq	376(%rsp), %rax
	movq	%rbx, %rdi
	leaq	64(%rsp), %rdx
	movl	$48, 64(%rsp)
	movq	%rax, 72(%rsp)
	leaq	96(%rsp), %rax
	movl	$48, 68(%rsp)
	movq	%rax, 80(%rsp)
	call	stbiw__writefv
	movl	12(%rsp), %edi
	movl	$0, 60(%rsp)
	testl	%edi, %edi
	je	.L848
	movl	stbi__flip_vertically_on_write(%rip), %esi
	testl	%esi, %esi
	jne	.L852
	movl	12(%rsp), %r15d
	movl	$-1, 32(%rsp)
	movl	$-1, 12(%rsp)
	subl	$1, %r15d
.L824:
	movl	(%rsp), %eax
	movl	32(%rsp), %ecx
	imull	%r12d, %eax
	imull	%eax, %ecx
	imull	%r15d, %eax
	movl	%ecx, 36(%rsp)
	movl	%eax, 16(%rsp)
	leaq	60(%rsp), %rax
	movq	%rax, 40(%rsp)
	.p2align 4,,10
	.p2align 3
.L849:
	movl	(%rsp), %eax
	movl	80(%rbx), %edx
	testl	%eax, %eax
	jle	.L847
	movslq	16(%rsp), %rbp
	movq	24(%rsp), %rax
	movslq	%r12d, %r14
	xorl	%r13d, %r13d
	movl	%r15d, 20(%rsp)
	movq	%r14, %r15
	movl	352(%rsp), %r14d
	addq	%rax, %rbp
	jmp	.L842
	.p2align 4,,10
	.p2align 3
.L864:
	leal	-1(%r12), %esi
	cmpl	$1, %esi
	ja	.L827
	movl	336(%rsp), %ecx
	movzbl	0(%rbp), %r8d
	movslq	%edx, %rsi
	testl	%ecx, %ecx
	jne	.L862
	addq	$1, %rsi
	cmpq	$64, %rsi
	ja	.L833
	movslq	%edx, %rsi
	addl	$1, %edx
.L834:
	movl	%edx, 80(%rbx)
	movb	%r8b, 16(%rbx,%rsi)
	.p2align 4,,10
	.p2align 3
.L827:
	cmpl	$1, %r14d
	jne	.L837
	movslq	%edx, %rsi
	movzbl	-1(%rbp,%r15), %r8d
	addq	$1, %rsi
	cmpq	$64, %rsi
	ja	.L840
	movslq	%edx, %rsi
	addl	$1, %edx
.L841:
	movl	%edx, 80(%rbx)
	movb	%r8b, 16(%rbx,%rsi)
.L837:
	addl	$1, %r13d
	addq	%r15, %rbp
	cmpl	%r13d, (%rsp)
	je	.L863
.L842:
	movq	(%rbx), %r10
	movq	8(%rbx), %rdi
	cmpl	$3, %r12d
	je	.L825
	jle	.L864
	cmpl	$4, %r12d
	jne	.L827
	testl	%r14d, %r14d
	jne	.L825
	movzbl	0(%rbp), %esi
	movzbl	3(%rbp), %r9d
	movl	$2155905153, %eax
	movzbl	1(%rbp), %r11d
	subl	$255, %esi
	imull	%r9d, %esi
	movslq	%esi, %r8
	imulq	$-2139062143, %r8, %r8
	shrq	$32, %r8
	addl	%esi, %r8d
	sarl	$31, %esi
	sarl	$7, %r8d
	cmpb	$1, %sil
	movzbl	2(%rbp), %esi
	sbbb	$0, %r8b
	imull	%r9d, %r11d
	subl	$255, %esi
	imull	%r9d, %esi
	imulq	%rax, %r11
	movslq	%esi, %r9
	imulq	$-2139062143, %r9, %r9
	shrq	$39, %r11
	shrq	$32, %r9
	addl	%esi, %r9d
	sarl	$31, %esi
	sarl	$7, %r9d
	cmpb	$1, %sil
	movslq	%edx, %rsi
	sbbb	$0, %r9b
	addq	$3, %rsi
	cmpq	$64, %rsi
	ja	.L835
	leal	1(%rdx), %edi
	leal	2(%rdx), %esi
	movslq	%edx, %r10
	addl	$3, %edx
.L836:
	movslq	%edi, %rdi
	movslq	%esi, %rsi
	movl	%edx, 80(%rbx)
	addl	$1, %r13d
	movb	%r9b, 16(%rbx,%r10)
	addq	%r15, %rbp
	movb	%r11b, 16(%rbx,%rdi)
	movb	%r8b, 16(%rbx,%rsi)
	cmpl	%r13d, (%rsp)
	jne	.L842
	.p2align 4,,10
	.p2align 3
.L863:
	movl	20(%rsp), %r15d
.L847:
	testl	%edx, %edx
	je	.L843
	movq	8(%rbx), %rdi
	leaq	16(%rbx), %rsi
	call	*(%rbx)
	movl	$0, 80(%rbx)
	movq	8(%rbx), %rdi
	movl	360(%rsp), %edx
	movq	40(%rsp), %rsi
	call	*(%rbx)
	movl	32(%rsp), %eax
	movl	36(%rsp), %ecx
	addl	%ecx, 16(%rsp)
	addl	%eax, %r15d
	cmpl	%r15d, 12(%rsp)
	jne	.L849
.L848:
	movl	$1, %eax
	jmp	.L820
.L852:
	movl	$1, 32(%rsp)
	xorl	%r15d, %r15d
	jmp	.L824
	.p2align 4,,10
	.p2align 3
.L825:
	movslq	%edx, %rsi
	movzbl	0(%rbp), %r8d
	movzbl	1(%rbp), %r9d
	addq	$3, %rsi
	movzbl	2(%rbp), %r11d
	cmpq	$64, %rsi
	ja	.L838
	leal	1(%rdx), %edi
	leal	2(%rdx), %esi
	movslq	%edx, %r10
	addl	$3, %edx
.L839:
	movslq	%edi, %rdi
	movslq	%esi, %rsi
	movl	%edx, 80(%rbx)
	movb	%r11b, 16(%rbx,%r10)
	movb	%r9b, 16(%rbx,%rdi)
	movb	%r8b, 16(%rbx,%rsi)
	jmp	.L827
	.p2align 4,,10
	.p2align 3
.L840:
	movb	%r8b, 6(%rsp)
	leaq	16(%rbx), %rsi
	movq	8(%rbx), %rdi
	call	*(%rbx)
	movzbl	6(%rsp), %r8d
	movl	$1, %edx
	xorl	%esi, %esi
	jmp	.L841
	.p2align 4,,10
	.p2align 3
.L838:
	movb	%r11b, 8(%rsp)
	leaq	16(%rbx), %rsi
	movb	%r9b, 7(%rsp)
	movb	%r8b, 6(%rsp)
	call	*%r10
	movl	$2, %esi
	movl	$1, %edi
	xorl	%r10d, %r10d
	movzbl	8(%rsp), %r11d
	movzbl	7(%rsp), %r9d
	movl	$3, %edx
	movzbl	6(%rsp), %r8d
	jmp	.L839
	.p2align 4,,10
	.p2align 3
.L833:
	movb	%r8b, 6(%rsp)
	leaq	16(%rbx), %rsi
	call	*%r10
	movzbl	6(%rsp), %r8d
	xorl	%esi, %esi
	movl	$1, %edx
	jmp	.L834
	.p2align 4,,10
	.p2align 3
.L862:
	addq	$3, %rsi
	cmpq	$64, %rsi
	ja	.L831
	leal	1(%rdx), %edi
	leal	2(%rdx), %esi
	movslq	%edx, %r9
	addl	$3, %edx
.L832:
	movslq	%edi, %rdi
	movslq	%esi, %rsi
	movl	%edx, 80(%rbx)
	movb	%r8b, 16(%rbx,%r9)
	movb	%r8b, 16(%rbx,%rdi)
	movb	%r8b, 16(%rbx,%rsi)
	jmp	.L827
	.p2align 4,,10
	.p2align 3
.L835:
	movl	%r11d, 8(%rsp)
	leaq	16(%rbx), %rsi
	movb	%r9b, 7(%rsp)
	movb	%r8b, 6(%rsp)
	call	*%r10
	movl	8(%rsp), %r11d
	xorl	%r10d, %r10d
	movl	$2, %esi
	movzbl	7(%rsp), %r9d
	movzbl	6(%rsp), %r8d
	movl	$1, %edi
	movl	$3, %edx
	jmp	.L836
	.p2align 4,,10
	.p2align 3
.L843:
	movq	8(%rbx), %rdi
	movl	360(%rsp), %edx
	movq	40(%rsp), %rsi
	call	*(%rbx)
	movl	32(%rsp), %eax
	movl	36(%rsp), %ecx
	addl	%ecx, 16(%rsp)
	addl	%eax, %r15d
	movl	12(%rsp), %eax
	cmpl	%eax, %r15d
	jne	.L849
	movl	$1, %eax
	jmp	.L820
	.p2align 4,,10
	.p2align 3
.L831:
	movb	%r8b, 6(%rsp)
	leaq	16(%rbx), %rsi
	call	*%r10
	movl	$2, %esi
	movl	$3, %edx
	xorl	%r9d, %r9d
	movl	336(%rsp), %edi
	movzbl	6(%rsp), %r8d
	jmp	.L832
.L861:
	call	__stack_chk_fail@PLT
	.cfi_endproc
.LFE833:
	.size	stbiw__outfile.constprop.0, .-stbiw__outfile.constprop.0
	.p2align 4
	.type	stbiw__zlib_flushf, @function
stbiw__zlib_flushf:
.LFB788:
	.cfi_startproc
	cmpl	$7, (%rdx)
	movq	%rdi, %rax
	jle	.L879
	pushq	%r12
	.cfi_def_cfa_offset 16
	.cfi_offset 12, -16
	pushq	%rbp
	.cfi_def_cfa_offset 24
	.cfi_offset 6, -24
	movq	%rdx, %rbp
	pushq	%rbx
	.cfi_def_cfa_offset 32
	.cfi_offset 3, -32
	movq	%rsi, %rbx
	testq	%rdi, %rdi
	je	.L867
	.p2align 4,,10
	.p2align 3
.L873:
	movslq	-4(%rax), %rdx
	movl	-8(%rax), %ecx
	leal	1(%rdx), %esi
	cmpl	%ecx, %esi
	jl	.L869
	leal	1(%rcx,%rcx), %r12d
	leaq	-8(%rax), %rdi
	movslq	%r12d, %rsi
	addq	$8, %rsi
	call	realloc@PLT
	movq	%rax, %rcx
	testq	%rax, %rax
	je	.L871
	movslq	4(%rax), %rdx
	leal	1(%rdx), %esi
.L872:
	movl	%r12d, (%rcx)
	leaq	8(%rcx), %rax
.L869:
	movl	(%rbx), %ecx
	movl	%esi, -4(%rax)
	movb	%cl, (%rax,%rdx)
	shrl	$8, (%rbx)
	movl	0(%rbp), %edi
	leal	-8(%rdi), %edx
	movl	%edx, 0(%rbp)
	cmpl	$7, %edx
	jg	.L873
	popq	%rbx
	.cfi_remember_state
	.cfi_def_cfa_offset 24
	popq	%rbp
	.cfi_def_cfa_offset 16
	popq	%r12
	.cfi_def_cfa_offset 8
	ret
	.p2align 4,,10
	.p2align 3
.L867:
	.cfi_restore_state
	movl	$10, %edi
	call	malloc@PLT
	movq	%rax, %rcx
	testq	%rax, %rax
	je	.L871
	movl	$0, 4(%rax)
	xorl	%edx, %edx
	movl	$1, %esi
	movl	$2, %r12d
	jmp	.L872
	.p2align 4,,10
	.p2align 3
.L879:
	.cfi_def_cfa_offset 8
	.cfi_restore 3
	.cfi_restore 6
	.cfi_restore 12
	ret
.L871:
	.cfi_def_cfa_offset 32
	.cfi_offset 3, -32
	.cfi_offset 6, -24
	.cfi_offset 12, -16
	leaq	__PRETTY_FUNCTION__.22(%rip), %rcx
	movl	$844, %edx
	leaq	.LC10(%rip), %rsi
	leaq	.LC44(%rip), %rdi
	call	__assert_fail@PLT
	.cfi_endproc
.LFE788:
	.size	stbiw__zlib_flushf, .-stbiw__zlib_flushf
	.p2align 4
	.type	stbi__malloc_mad3, @function
stbi__malloc_mad3:
.LFB560:
	.cfi_startproc
	movl	%esi, %r8d
	movl	%edi, %eax
	movl	%edx, %esi
	orl	%r8d, %eax
	js	.L882
	testl	%r8d, %r8d
	je	.L895
	movl	$2147483647, %eax
	xorl	%edx, %edx
	idivl	%r8d
	cmpl	%eax, %edi
	jg	.L882
	testl	%esi, %esi
	js	.L882
	imull	%edi, %r8d
	testl	%esi, %esi
	je	.L885
	movl	$2147483647, %eax
	xorl	%edx, %edx
	idivl	%esi
	cmpl	%eax, %r8d
	jle	.L896
.L882:
	xorl	%eax, %eax
	ret
	.p2align 4,,10
	.p2align 3
.L895:
	testl	%edx, %edx
	js	.L882
.L885:
	imull	%r8d, %esi
	leal	(%rsi,%rcx), %edi
	movslq	%edi, %rdi
	jmp	malloc@PLT
.L896:
	movl	%esi, %edx
	movl	$2147483647, %eax
	imull	%r8d, %edx
	subl	%ecx, %eax
	cmpl	%eax, %edx
	jg	.L882
	jmp	.L885
	.cfi_endproc
.LFE560:
	.size	stbi__malloc_mad3, .-stbi__malloc_mad3
	.p2align 4
	.type	stbi_write_tga_core, @function
stbi_write_tga_core:
.LFB777:
	.cfi_startproc
	pushq	%r15
	.cfi_def_cfa_offset 16
	.cfi_offset 15, -16
	leal	-2(%rcx), %eax
	movl	%ecx, %r15d
	pushq	%r14
	.cfi_def_cfa_offset 24
	.cfi_offset 14, -24
	andl	$-3, %eax
	movl	%edx, %r14d
	movl	%ecx, %edx
	pushq	%r13
	.cfi_def_cfa_offset 32
	.cfi_offset 13, -32
	pushq	%r12
	.cfi_def_cfa_offset 40
	.cfi_offset 12, -40
	movq	%r8, %r12
	pushq	%rbp
	.cfi_def_cfa_offset 48
	.cfi_offset 6, -48
	pushq	%rbx
	.cfi_def_cfa_offset 56
	.cfi_offset 3, -56
	movl	%eax, %ebx
	subq	$88, %rsp
	.cfi_def_cfa_offset 144
	cmpl	$1, %eax
	sbbl	$0, %edx
	movl	%eax, 12(%rsp)
	cmpl	$2, %edx
	movl	%esi, 36(%rsp)
	setl	%al
	setl	%r8b
	xorl	%ecx, %ecx
	movzbl	%r8b, %r8d
	movzbl	%al, %eax
	addl	$10, %r8d
	addl	$2, %eax
	orl	%r14d, %esi
	js	.L897
	xorl	%ecx, %ecx
	testl	%ebx, %ebx
	movl	stbi_write_tga_with_rle(%rip), %r10d
	movq	%rdi, %rbp
	sete	%cl
	addl	%ecx, %edx
	leal	0(,%rcx,8), %esi
	sall	$3, %edx
	testl	%r10d, %r10d
	je	.L1000
	pushq	%rsi
	.cfi_def_cfa_offset 152
	xorl	%r9d, %r9d
	xorl	%ecx, %ecx
	leaq	.LC45(%rip), %rsi
	pushq	%rdx
	.cfi_def_cfa_offset 160
	xorl	%edx, %edx
	pushq	%r14
	.cfi_def_cfa_offset 168
	movl	60(%rsp), %eax
	pushq	%rax
	.cfi_def_cfa_offset 176
	xorl	%eax, %eax
	pushq	$0
	.cfi_def_cfa_offset 184
	pushq	$0
	.cfi_def_cfa_offset 192
	pushq	$0
	.cfi_def_cfa_offset 200
	pushq	$0
	.cfi_def_cfa_offset 208
	call	stbiw__writef.constprop.0
	movl	stbi__flip_vertically_on_write(%rip), %r9d
	addq	$64, %rsp
	.cfi_def_cfa_offset 144
	testl	%r9d, %r9d
	jne	.L962
	leal	-1(%r14), %r13d
	movl	$-1, %edx
	movl	$-1, %r14d
.L902:
	movl	80(%rbp), %ebx
	cmpl	%r14d, %r13d
	je	.L955
	movl	36(%rsp), %ecx
	movl	%edx, 72(%rsp)
	movl	%r14d, 76(%rsp)
	movl	%ecx, %eax
	movl	%r15d, 32(%rsp)
	imull	%edx, %eax
	imull	%r15d, %eax
	cltq
	movq	%rax, 64(%rsp)
	movl	%ecx, %eax
	imull	%r13d, %eax
	imull	%r15d, %eax
	cltq
	leaq	(%r12,%rax), %r10
	movq	%r10, %r11
	.p2align 4,,10
	.p2align 3
.L954:
	movl	36(%rsp), %eax
	testl	%eax, %eax
	jle	.L903
	subl	$1, %eax
	movl	%r13d, 60(%rsp)
	movslq	32(%rsp), %r12
	xorl	%r8d, %r8d
	movl	%eax, 52(%rsp)
	movq	%r11, 16(%rsp)
	.p2align 4,,10
	.p2align 3
.L953:
	movl	32(%rsp), %eax
	movq	16(%rsp), %rcx
	movl	%eax, %r9d
	imull	%r8d, %r9d
	movslq	%r9d, %r13
	addq	%rcx, %r13
	cmpl	%r8d, 52(%rsp)
	jle	.L904
	leal	(%r9,%rax), %r15d
	movq	%r12, %rdx
	movq	%r13, %rdi
	movl	%r8d, 24(%rsp)
	movslq	%r15d, %rsi
	addq	%rcx, %rsi
	call	memcmp@PLT
	movl	24(%rsp), %r8d
	movl	%eax, %r14d
	leal	2(%r8), %eax
	testl	%r14d, %r14d
	je	.L905
	movl	36(%rsp), %edx
	cmpl	%eax, %edx
	jle	.L963
	movl	32(%rsp), %eax
	movq	16(%rsp), %rcx
	movq	%r13, %rdi
	movl	%ebx, 48(%rsp)
	movq	%r13, 24(%rsp)
	movl	%r8d, %r14d
	movl	%edx, %ebx
	leal	(%r15,%rax), %esi
	movl	$2, %r15d
	movq	%rbp, 40(%rsp)
	movslq	%esi, %rsi
	movl	%r15d, %ebp
	movq	%r12, %r15
	movq	%rdi, %r12
	addq	%rcx, %rsi
	movq	%rsi, %r13
	jmp	.L908
	.p2align 4,,10
	.p2align 3
.L1001:
	addl	$1, %ebp
	addq	%r15, %r12
	addq	%r15, %r13
	leal	(%r14,%rbp), %eax
	cmpl	%eax, %ebx
	jle	.L994
	cmpl	$127, %ebp
	jg	.L994
.L908:
	movq	%r15, %rdx
	movq	%r13, %rsi
	movq	%r12, %rdi
	call	memcmp@PLT
	testl	%eax, %eax
	jne	.L1001
	movq	%r15, %r12
	movl	%ebp, %r15d
	movl	%r14d, %r8d
	movq	24(%rsp), %r13
	subl	$1, %r15d
	movl	48(%rsp), %ebx
	movq	40(%rsp), %rbp
	leal	-1(%r15), %eax
	addl	%r15d, %r8d
.L906:
	movslq	%ebx, %rdx
	leaq	1(%rdx), %rsi
	cmpq	$64, %rsi
	jbe	.L915
.L1005:
	movl	%r8d, 48(%rsp)
	movl	%ebx, %edx
	movq	8(%rbp), %rdi
	leaq	16(%rbp), %rsi
	movb	%al, 24(%rsp)
	movl	$1, %ebx
	call	*0(%rbp)
	movzbl	24(%rsp), %eax
	movl	$1, 80(%rbp)
	movl	48(%rsp), %r8d
	movb	%al, 16(%rbp)
.L916:
	xorl	%eax, %eax
	movl	%ebx, %edx
	movl	%r8d, 56(%rsp)
	movq	%r12, %rbx
	movl	32(%rsp), %r14d
	movl	%eax, %r12d
	jmp	.L931
	.p2align 4,,10
	.p2align 3
.L1003:
	leal	-1(%r14), %eax
	cmpl	$1, %eax
	ja	.L919
	movslq	%edx, %rax
	movzbl	0(%r13), %r9d
	addq	$1, %rax
	cmpq	$64, %rax
	ja	.L922
	movslq	%edx, %rax
	addl	$1, %edx
.L923:
	movl	%edx, 80(%rbp)
	movb	%r9b, 16(%rbp,%rax)
	.p2align 4,,10
	.p2align 3
.L919:
	movl	12(%rsp), %edi
	testl	%edi, %edi
	jne	.L926
	movslq	%edx, %rax
	movzbl	-1(%r13,%rbx), %r9d
	addq	$1, %rax
	cmpq	$64, %rax
	ja	.L929
	movslq	%edx, %rax
	addl	$1, %edx
.L930:
	movl	%edx, 80(%rbp)
	movb	%r9b, 16(%rbp,%rax)
.L926:
	addl	$1, %r12d
	addq	%rbx, %r13
	cmpl	%r12d, %r15d
	je	.L1002
.L931:
	cmpl	$3, %r14d
	je	.L917
	jle	.L1003
	cmpl	$4, %r14d
	jne	.L919
	movl	12(%rsp), %r8d
	testl	%r8d, %r8d
	je	.L917
	movzbl	0(%r13), %esi
	movzbl	3(%r13), %edi
	movl	$2155905153, %ecx
	movzbl	1(%r13), %r10d
	subl	$255, %esi
	imull	%edi, %esi
	movslq	%esi, %rax
	imulq	$-2139062143, %rax, %rax
	shrq	$32, %rax
	addl	%esi, %eax
	sarl	$31, %esi
	sarl	$7, %eax
	cmpb	$1, %sil
	movzbl	2(%r13), %esi
	sbbb	$0, %al
	imull	%edi, %r10d
	subl	$255, %esi
	imull	%edi, %esi
	imulq	%rcx, %r10
	movslq	%esi, %r9
	imulq	$-2139062143, %r9, %r9
	shrq	$39, %r10
	shrq	$32, %r9
	addl	%esi, %r9d
	sarl	$31, %esi
	sarl	$7, %r9d
	cmpb	$1, %sil
	movslq	%edx, %rsi
	sbbb	$0, %r9b
	addq	$3, %rsi
	cmpq	$64, %rsi
	ja	.L924
	leal	1(%rdx), %edi
	leal	2(%rdx), %esi
	movslq	%edx, %r11
	addl	$3, %edx
.L925:
	movslq	%edi, %rdi
	movslq	%esi, %rsi
	addl	$1, %r12d
	movl	%edx, 80(%rbp)
	addq	%rbx, %r13
	movb	%r9b, 16(%rbp,%r11)
	movb	%r10b, 16(%rbp,%rdi)
	movb	%al, 16(%rbp,%rsi)
	cmpl	%r12d, %r15d
	jne	.L931
	.p2align 4,,10
	.p2align 3
.L1002:
	movl	56(%rsp), %r8d
	movq	%rbx, %r12
	movl	%edx, %ebx
.L932:
	cmpl	%r8d, 36(%rsp)
	jg	.L953
	movl	60(%rsp), %r13d
	movq	16(%rsp), %r11
.L903:
	movl	72(%rsp), %eax
	addl	%eax, %r13d
	movq	64(%rsp), %rax
	addq	%rax, %r11
	movl	76(%rsp), %eax
	cmpl	%eax, %r13d
	jne	.L954
.L955:
	testl	%ebx, %ebx
	je	.L958
	movq	8(%rbp), %rdi
	leaq	16(%rbp), %rsi
	movl	%ebx, %edx
	call	*0(%rbp)
	movl	$0, 80(%rbp)
.L958:
	movl	$1, %ecx
.L897:
	addq	$88, %rsp
	.cfi_remember_state
	.cfi_def_cfa_offset 56
	movl	%ecx, %eax
	popq	%rbx
	.cfi_def_cfa_offset 48
	popq	%rbp
	.cfi_def_cfa_offset 40
	popq	%r12
	.cfi_def_cfa_offset 32
	popq	%r13
	.cfi_def_cfa_offset 24
	popq	%r14
	.cfi_def_cfa_offset 16
	popq	%r15
	.cfi_def_cfa_offset 8
	ret
.L1000:
	.cfi_restore_state
	subq	$8, %rsp
	.cfi_def_cfa_offset 152
	movl	%r15d, %r9d
	movl	%r14d, %r8d
	pushq	%rsi
	.cfi_def_cfa_offset 160
	movl	$-1, %esi
	pushq	%rdx
	.cfi_def_cfa_offset 168
	movl	$-1, %edx
	pushq	%r14
	.cfi_def_cfa_offset 176
	movl	68(%rsp), %ebx
	pushq	%rbx
	.cfi_def_cfa_offset 184
	pushq	$0
	.cfi_def_cfa_offset 192
	pushq	$0
	.cfi_def_cfa_offset 200
	pushq	$0
	.cfi_def_cfa_offset 208
	pushq	$0
	.cfi_def_cfa_offset 216
	pushq	$0
	.cfi_def_cfa_offset 224
	pushq	%rax
	.cfi_def_cfa_offset 232
	leaq	.LC45(%rip), %rax
	pushq	$0
	.cfi_def_cfa_offset 240
	pushq	$0
	.cfi_def_cfa_offset 248
	pushq	%rax
	.cfi_def_cfa_offset 256
	xorl	%eax, %eax
	pushq	$0
	.cfi_def_cfa_offset 264
	pushq	%rcx
	.cfi_def_cfa_offset 272
	movl	%ebx, %ecx
	pushq	%r12
	.cfi_def_cfa_offset 280
	pushq	$0
	.cfi_def_cfa_offset 288
	call	stbiw__outfile.constprop.0
	addq	$144, %rsp
	.cfi_def_cfa_offset 144
	movl	%eax, %ecx
	jmp	.L897
	.p2align 4,,10
	.p2align 3
.L917:
	movslq	%edx, %rsi
	movzbl	0(%r13), %eax
	movzbl	1(%r13), %r9d
	addq	$3, %rsi
	movzbl	2(%r13), %r10d
	cmpq	$64, %rsi
	ja	.L927
	leal	1(%rdx), %edi
	leal	2(%rdx), %esi
	movslq	%edx, %r11
	addl	$3, %edx
.L928:
	movslq	%edi, %rdi
	movslq	%esi, %rsi
	movl	%edx, 80(%rbp)
	movb	%r10b, 16(%rbp,%r11)
	movb	%r9b, 16(%rbp,%rdi)
	movb	%al, 16(%rbp,%rsi)
	jmp	.L919
	.p2align 4,,10
	.p2align 3
.L929:
	movb	%r9b, 24(%rsp)
	movq	8(%rbp), %rdi
	leaq	16(%rbp), %rsi
	call	*0(%rbp)
	movzbl	24(%rsp), %r9d
	movl	$1, %edx
	xorl	%eax, %eax
	jmp	.L930
	.p2align 4,,10
	.p2align 3
.L927:
	movb	%r10b, 40(%rsp)
	movq	8(%rbp), %rdi
	leaq	16(%rbp), %rsi
	movb	%r9b, 48(%rsp)
	movb	%al, 24(%rsp)
	call	*0(%rbp)
	movzbl	24(%rsp), %eax
	movl	$2, %esi
	xorl	%r11d, %r11d
	movzbl	40(%rsp), %r10d
	movzbl	48(%rsp), %r9d
	movl	$1, %edi
	movl	$3, %edx
	jmp	.L928
	.p2align 4,,10
	.p2align 3
.L922:
	movb	%r9b, 24(%rsp)
	movq	8(%rbp), %rdi
	leaq	16(%rbp), %rsi
	call	*0(%rbp)
	movzbl	24(%rsp), %r9d
	movl	$1, %edx
	xorl	%eax, %eax
	jmp	.L923
	.p2align 4,,10
	.p2align 3
.L905:
	movl	36(%rsp), %ecx
	cmpl	%eax, %ecx
	jle	.L964
	movl	32(%rsp), %eax
	movl	%r14d, 24(%rsp)
	movl	%ebx, 48(%rsp)
	movl	%r8d, %ebx
	leal	(%r15,%rax), %r9d
	movq	16(%rsp), %rax
	movl	$2, %r15d
	movq	%rbp, 40(%rsp)
	movslq	%r9d, %r9
	movl	%r15d, %ebp
	movl	%ecx, %r15d
	addq	%rax, %r9
	movq	%r9, %r14
	jmp	.L913
	.p2align 4,,10
	.p2align 3
.L991:
	addl	$1, %ebp
	addq	%r12, %r14
	leal	0(%rbp,%rbx), %eax
	cmpl	%eax, %r15d
	jle	.L995
	cmpl	$127, %ebp
	jg	.L995
.L913:
	movq	%r12, %rdx
	movq	%r14, %rsi
	movq	%r13, %rdi
	call	memcmp@PLT
	testl	%eax, %eax
	je	.L991
	movl	%ebp, %r15d
	movl	%ebx, %r8d
	movl	24(%rsp), %r14d
	movl	48(%rsp), %ebx
	movq	40(%rsp), %rbp
	leal	(%r15,%r8), %eax
.L912:
	movl	%eax, %r8d
	leal	127(%r15), %r10d
.L911:
	movslq	%ebx, %rsi
	leaq	1(%rsi), %rax
	cmpq	$64, %rax
	jbe	.L933
	movl	%r8d, 48(%rsp)
	movq	8(%rbp), %rdi
	leaq	16(%rbp), %rsi
	movl	%ebx, %edx
	movb	%r10b, 24(%rsp)
	call	*0(%rbp)
	movl	32(%rsp), %eax
	movzbl	24(%rsp), %r10d
	movl	$1, 80(%rbp)
	movl	48(%rsp), %r8d
	cmpl	$3, %eax
	movb	%r10b, 16(%rbp)
	je	.L934
	jg	.L935
	subl	$1, %eax
	cmpl	$1, %eax
	ja	.L999
	movzbl	0(%r13), %r15d
	movl	$2, %edx
	movl	$1, %esi
.L945:
	movl	%edx, 80(%rbp)
	movb	%r15b, 16(%rbp,%rsi)
.L941:
	movl	12(%rsp), %eax
	movl	%edx, %ebx
	testl	%eax, %eax
	jne	.L932
	leal	1(%rdx), %eax
	movzbl	-1(%r13,%r12), %r13d
	cltq
	cmpq	$64, %rax
	jbe	.L1004
	movl	%r8d, 24(%rsp)
	movq	8(%rbp), %rdi
	leaq	16(%rbp), %rsi
	movl	$1, %ebx
	call	*0(%rbp)
	movl	24(%rsp), %r8d
.L952:
	movslq	%r14d, %r15
	movl	%ebx, 80(%rbp)
	movb	%r13b, 16(%rbp,%r15)
	jmp	.L932
	.p2align 4,,10
	.p2align 3
.L904:
	movslq	%ebx, %rdx
	addl	$1, %r8d
	xorl	%eax, %eax
	movl	$1, %r15d
	leaq	1(%rdx), %rsi
	cmpq	$64, %rsi
	ja	.L1005
.L915:
	addl	$1, %ebx
	movl	%ebx, 80(%rbp)
	movb	%al, 16(%rbp,%rdx)
	jmp	.L916
	.p2align 4,,10
	.p2align 3
.L935:
	cmpl	$4, 32(%rsp)
	movl	$4, %esi
	movl	$1, %edx
	jne	.L999
.L938:
	movl	12(%rsp), %ecx
	movzbl	0(%r13), %ebx
	movzbl	1(%r13), %eax
	movzbl	2(%r13), %r9d
	testl	%ecx, %ecx
	je	.L943
	movzbl	3(%r13), %edi
	movzbl	%bl, %r10d
	movzbl	%al, %r13d
	subl	$255, %r10d
	movl	%r13d, %eax
	imull	%edi, %r10d
	movslq	%r10d, %r15
	imulq	$-2139062143, %r15, %r15
	shrq	$32, %r15
	addl	%r10d, %r15d
	sarl	$31, %r10d
	sarl	$7, %r15d
	cmpb	$1, %r10b
	sbbb	$0, %r15b
	imull	%edi, %eax
	movl	%eax, %r13d
	movl	$2155905153, %eax
	imulq	%rax, %r13
	leal	-255(%r9), %eax
	imull	%eax, %edi
	shrq	$39, %r13
	movslq	%edi, %rax
	imulq	$-2139062143, %rax, %rax
	shrq	$32, %rax
	addl	%edi, %eax
	sarl	$31, %edi
	sarl	$7, %eax
	cmpb	$1, %dil
	sbbb	$0, %al
	cmpq	$64, %rsi
	ja	.L946
	leal	3(%rdx), %ebx
	leal	1(%rdx), %edi
	leal	2(%rdx), %esi
.L947:
	movslq	%edx, %rdx
	movl	%ebx, 80(%rbp)
	movb	%al, 16(%rbp,%rdx)
	movslq	%edi, %rax
	movb	%r13b, 16(%rbp,%rax)
	movslq	%esi, %rax
	movb	%r15b, 16(%rbp,%rax)
	jmp	.L932
	.p2align 4,,10
	.p2align 3
.L933:
	movl	32(%rsp), %eax
	leal	1(%rbx), %edx
	movl	%edx, 80(%rbp)
	movb	%r10b, 16(%rbp,%rsi)
	cmpl	$3, %eax
	je	.L939
	jg	.L940
	subl	$1, %eax
	cmpl	$1, %eax
	ja	.L941
	movzbl	0(%r13), %r15d
	cmpq	$63, %rsi
	jne	.L1006
	movl	%r8d, 24(%rsp)
	leaq	16(%rbp), %rsi
	movq	8(%rbp), %rdi
	call	*0(%rbp)
	movl	24(%rsp), %r8d
	xorl	%esi, %esi
	movl	$1, %edx
	jmp	.L945
	.p2align 4,,10
	.p2align 3
.L940:
	addq	$4, %rsi
	cmpl	$4, 32(%rsp)
	je	.L938
	jmp	.L941
	.p2align 4,,10
	.p2align 3
.L924:
	movl	%r10d, 40(%rsp)
	movq	8(%rbp), %rdi
	leaq	16(%rbp), %rsi
	movb	%al, 48(%rsp)
	movb	%r9b, 24(%rsp)
	call	*0(%rbp)
	movl	40(%rsp), %r10d
	movzbl	48(%rsp), %eax
	xorl	%r11d, %r11d
	movzbl	24(%rsp), %r9d
	movl	$2, %esi
	movl	$1, %edi
	movl	$3, %edx
	jmp	.L925
	.p2align 4,,10
	.p2align 3
.L999:
	movl	12(%rsp), %esi
	movl	$1, %ebx
	testl	%esi, %esi
	jne	.L932
	movzbl	-1(%r13,%r12), %r13d
	movl	$1, %r14d
.L937:
	leal	1(%r14), %ebx
	jmp	.L952
	.p2align 4,,10
	.p2align 3
.L994:
	movq	%r15, %r12
	movl	%ebp, %r15d
	movl	%eax, %r8d
	movq	24(%rsp), %r13
	movl	48(%rsp), %ebx
	movq	40(%rsp), %rbp
	leal	-1(%r15), %eax
	jmp	.L906
	.p2align 4,,10
	.p2align 3
.L995:
	movl	%ebp, %r15d
	movl	24(%rsp), %r14d
	movl	48(%rsp), %ebx
	movq	40(%rsp), %rbp
	jmp	.L912
	.p2align 4,,10
	.p2align 3
.L939:
	movzbl	0(%r13), %ebx
	movzbl	1(%r13), %eax
	addq	$4, %rsi
	movzbl	2(%r13), %r9d
.L943:
	movl	%eax, %r15d
	cmpq	$64, %rsi
	jbe	.L1007
	movl	%r8d, 48(%rsp)
	movq	8(%rbp), %rdi
	leaq	16(%rbp), %rsi
	movb	%r9b, 24(%rsp)
	call	*0(%rbp)
	movl	48(%rsp), %r8d
	movzbl	24(%rsp), %r9d
	xorl	%esi, %esi
	movl	$2, %edi
	movl	$1, %r10d
	movl	$3, %edx
.L950:
	movslq	%r10d, %r10
	movslq	%edi, %rdi
	movl	%edx, 80(%rbp)
	movb	%r9b, 16(%rbp,%rsi)
	movb	%r15b, 16(%rbp,%r10)
	movb	%bl, 16(%rbp,%rdi)
	jmp	.L941
	.p2align 4,,10
	.p2align 3
.L934:
	movzbl	0(%r13), %ebx
	movzbl	1(%r13), %r15d
	movl	$1, %esi
	movzbl	2(%r13), %r9d
.L948:
	leal	3(%rsi), %edx
	leal	1(%rsi), %r10d
	leal	2(%rsi), %edi
	jmp	.L950
.L946:
	movl	%r8d, 48(%rsp)
	movq	8(%rbp), %rdi
	leaq	16(%rbp), %rsi
	movl	$3, %ebx
	movb	%al, 24(%rsp)
	call	*0(%rbp)
	movl	48(%rsp), %r8d
	movzbl	24(%rsp), %eax
	xorl	%edx, %edx
	movl	$2, %esi
	movl	$1, %edi
	jmp	.L947
.L1007:
	movslq	%edx, %rsi
	jmp	.L948
.L964:
	movl	%eax, %r8d
	movl	$-127, %r10d
	jmp	.L911
.L963:
	movl	%eax, %r8d
	movl	$2, %r15d
	movl	$1, %eax
	jmp	.L906
.L962:
	movl	$1, %edx
	xorl	%r13d, %r13d
	jmp	.L902
.L1004:
	movl	%edx, %r14d
	jmp	.L937
.L1006:
	movslq	%edx, %rsi
	leal	2(%rbx), %edx
	jmp	.L945
	.cfi_endproc
.LFE777:
	.size	stbi_write_tga_core, .-stbi_write_tga_core
	.section	.rodata.str1.1
.LC53:
	.string	"bad codelengths"
.LC54:
	.string	"bad sizes"
	.text
	.p2align 4
	.type	stbi__zbuild_huffman, @function
stbi__zbuild_huffman:
.LFB656:
	.cfi_startproc
	pushq	%r15
	.cfi_def_cfa_offset 16
	.cfi_offset 15, -16
	pxor	%xmm0, %xmm0
	movq	%rdi, %r8
	leaq	8(%rdi), %rdi
	pushq	%r14
	.cfi_def_cfa_offset 24
	.cfi_offset 14, -24
	movq	%r8, %rcx
	pushq	%r13
	.cfi_def_cfa_offset 32
	.cfi_offset 13, -32
	pushq	%r12
	.cfi_def_cfa_offset 40
	.cfi_offset 12, -40
	pushq	%rbp
	.cfi_def_cfa_offset 48
	.cfi_offset 6, -48
	pushq	%rbx
	.cfi_def_cfa_offset 56
	.cfi_offset 3, -56
	subq	$184, %rsp
	.cfi_def_cfa_offset 240
	movq	%fs:40, %rax
	movq	%rax, 168(%rsp)
	xorl	%eax, %eax
	movaps	%xmm0, 96(%rsp)
	movl	$0, 160(%rsp)
	movaps	%xmm0, 112(%rsp)
	movaps	%xmm0, 128(%rsp)
	movaps	%xmm0, 144(%rsp)
	movq	$0, -8(%rdi)
	movq	$0, 1008(%rdi)
	andq	$-8, %rdi
	subq	%rdi, %rcx
	addl	$1024, %ecx
	shrl	$3, %ecx
	rep stosq
	movslq	%edx, %rdi
	movq	%rsi, %rax
	leaq	(%rdi,%rsi), %rcx
	.p2align 4,,10
	.p2align 3
.L1009:
	movzbl	(%rax), %edx
	addq	$1, %rax
	addl	$1, 96(%rsp,%rdx,4)
	cmpq	%rax, %rcx
	jne	.L1009
	movl	100(%rsp), %ecx
	movl	$0, 96(%rsp)
	cmpl	$2, %ecx
	jg	.L1046
	movl	104(%rsp), %edx
	cmpl	$4, %edx
	jg	.L1046
	movl	108(%rsp), %r9d
	cmpl	$8, %r9d
	jg	.L1046
	movl	112(%rsp), %r10d
	cmpl	$16, %r10d
	jg	.L1046
	movl	116(%rsp), %r11d
	cmpl	$32, %r11d
	jg	.L1046
	movl	120(%rsp), %ebx
	cmpl	$64, %ebx
	jg	.L1046
	movl	124(%rsp), %ebp
	cmpl	$128, %ebp
	jg	.L1046
	movl	128(%rsp), %r12d
	cmpl	$256, %r12d
	jg	.L1046
	movl	132(%rsp), %r13d
	cmpl	$512, %r13d
	jg	.L1046
	movl	136(%rsp), %r14d
	cmpl	$1024, %r14d
	jg	.L1046
	movl	140(%rsp), %eax
	movl	%eax, 12(%rsp)
	cmpl	$2048, %eax
	jg	.L1046
	movl	144(%rsp), %eax
	movl	%eax, 16(%rsp)
	cmpl	$4096, %eax
	jg	.L1046
	movl	148(%rsp), %eax
	movl	%eax, 20(%rsp)
	cmpl	$8192, %eax
	jg	.L1046
	movl	152(%rsp), %eax
	movl	%eax, 24(%rsp)
	cmpl	$16384, %eax
	jg	.L1046
	movl	156(%rsp), %eax
	movl	%eax, 28(%rsp)
	cmpl	$32768, %eax
	jg	.L1046
	xorl	%eax, %eax
	xorl	%r15d, %r15d
	movl	$0, 36(%rsp)
	movw	%ax, 1026(%r8)
	movl	%ecx, %eax
	sall	$15, %eax
	movw	%r15w, 1126(%r8)
	movl	%eax, 1060(%r8)
	leal	(%rcx,%rcx), %eax
	movl	%eax, 40(%rsp)
	movw	%ax, 1028(%r8)
	addl	%edx, %eax
	movw	%cx, 1128(%r8)
	testl	%edx, %edx
	je	.L1011
	cmpl	$4, %eax
	jg	.L1012
.L1011:
	movl	%eax, %r15d
	addl	%ecx, %edx
	addl	%eax, %eax
	sall	$14, %r15d
	movl	%eax, 44(%rsp)
	movw	%ax, 1030(%r8)
	addl	%r9d, %eax
	movl	%r15d, 1064(%r8)
	movw	%dx, 1130(%r8)
	testl	%r9d, %r9d
	je	.L1013
	cmpl	$8, %eax
	jg	.L1012
.L1013:
	movl	%eax, %ecx
	addl	%r9d, %edx
	addl	%eax, %eax
	sall	$13, %ecx
	movl	%eax, 48(%rsp)
	movw	%ax, 1032(%r8)
	addl	%r10d, %eax
	movl	%ecx, 1068(%r8)
	movw	%dx, 1132(%r8)
	testl	%r10d, %r10d
	je	.L1014
	cmpl	$16, %eax
	jg	.L1012
.L1014:
	movl	%eax, %ecx
	addl	%r10d, %edx
	addl	%eax, %eax
	sall	$12, %ecx
	movl	%eax, 52(%rsp)
	movw	%ax, 1034(%r8)
	addl	%r11d, %eax
	movl	%ecx, 1072(%r8)
	movw	%dx, 1134(%r8)
	testl	%r11d, %r11d
	je	.L1015
	cmpl	$32, %eax
	jg	.L1012
.L1015:
	movl	%eax, %ecx
	addl	%r11d, %edx
	addl	%eax, %eax
	sall	$11, %ecx
	movl	%eax, 56(%rsp)
	movw	%ax, 1036(%r8)
	addl	%ebx, %eax
	movl	%ecx, 1076(%r8)
	movw	%dx, 1136(%r8)
	testl	%ebx, %ebx
	je	.L1016
	cmpl	$64, %eax
	jg	.L1012
.L1016:
	movl	%eax, %ecx
	addl	%ebx, %edx
	addl	%eax, %eax
	sall	$10, %ecx
	movl	%eax, 60(%rsp)
	movw	%ax, 1038(%r8)
	addl	%ebp, %eax
	movl	%ecx, 1080(%r8)
	movw	%dx, 1138(%r8)
	testl	%ebp, %ebp
	je	.L1017
	cmpl	$128, %eax
	jg	.L1012
.L1017:
	movl	%eax, %ecx
	addl	%ebp, %edx
	addl	%eax, %eax
	sall	$9, %ecx
	movl	%eax, 64(%rsp)
	movw	%ax, 1040(%r8)
	addl	%r12d, %eax
	movl	%ecx, 1084(%r8)
	movw	%dx, 1140(%r8)
	testl	%r12d, %r12d
	je	.L1018
	cmpl	$256, %eax
	jg	.L1012
.L1018:
	movl	%eax, %ecx
	addl	%r12d, %edx
	addl	%eax, %eax
	sall	$8, %ecx
	movl	%eax, 68(%rsp)
	movw	%ax, 1042(%r8)
	addl	%r13d, %eax
	movl	%ecx, 1088(%r8)
	movw	%dx, 1142(%r8)
	testl	%r13d, %r13d
	je	.L1019
	cmpl	$512, %eax
	jg	.L1012
.L1019:
	movl	%eax, %ecx
	addl	%r13d, %edx
	addl	%eax, %eax
	sall	$7, %ecx
	movl	%eax, 72(%rsp)
	movw	%ax, 1044(%r8)
	addl	%r14d, %eax
	movl	%ecx, 1092(%r8)
	movw	%dx, 1144(%r8)
	testl	%r14d, %r14d
	je	.L1020
	cmpl	$1024, %eax
	jg	.L1012
.L1020:
	movl	%eax, %ecx
	movl	12(%rsp), %ebx
	addl	%eax, %eax
	addl	%r14d, %edx
	sall	$6, %ecx
	movl	%eax, 76(%rsp)
	movw	%ax, 1046(%r8)
	addl	%ebx, %eax
	movl	%ecx, 1096(%r8)
	movw	%dx, 1146(%r8)
	testl	%ebx, %ebx
	je	.L1021
	cmpl	$2048, %eax
	jg	.L1012
.L1021:
	movl	12(%rsp), %ebx
	movl	%eax, %ecx
	addl	%eax, %eax
	sall	$5, %ecx
	movl	%eax, 80(%rsp)
	addl	%ebx, %edx
	movl	16(%rsp), %ebx
	movw	%ax, 1048(%r8)
	movl	%ecx, 1100(%r8)
	movw	%dx, 1148(%r8)
	addl	%ebx, %eax
	testl	%ebx, %ebx
	je	.L1022
	cmpl	$4096, %eax
	jg	.L1012
.L1022:
	movl	16(%rsp), %ebx
	movl	%eax, %ecx
	addl	%eax, %eax
	sall	$4, %ecx
	movl	%eax, 84(%rsp)
	addl	%ebx, %edx
	movl	20(%rsp), %ebx
	movw	%ax, 1050(%r8)
	movl	%ecx, 1104(%r8)
	movw	%dx, 1150(%r8)
	addl	%ebx, %eax
	testl	%ebx, %ebx
	je	.L1023
	cmpl	$8192, %eax
	jg	.L1012
.L1023:
	movl	20(%rsp), %ebx
	leal	0(,%rax,8), %ecx
	addl	%eax, %eax
	movl	%eax, 88(%rsp)
	addl	%ebx, %edx
	movl	24(%rsp), %ebx
	movw	%ax, 1052(%r8)
	movl	%ecx, 1108(%r8)
	movw	%dx, 1152(%r8)
	addl	%ebx, %eax
	testl	%ebx, %ebx
	je	.L1024
	cmpl	$16384, %eax
	jg	.L1012
.L1024:
	movl	24(%rsp), %ebx
	leal	0(,%rax,4), %ecx
	addl	%eax, %eax
	movl	%eax, 92(%rsp)
	addl	%ebx, %edx
	movl	28(%rsp), %ebx
	movw	%ax, 1054(%r8)
	movl	%ecx, 1112(%r8)
	movw	%dx, 1154(%r8)
	addl	%ebx, %eax
	testl	%ebx, %ebx
	jne	.L1096
.L1025:
	addl	%eax, %eax
	xorl	%edx, %edx
	movl	$1, %ebp
	movl	$16, %ebx
	movl	%eax, 1116(%r8)
	movl	$65536, 1120(%r8)
	jmp	.L1030
	.p2align 4,,10
	.p2align 3
.L1028:
	addl	$1, %r9d
	movl	%r9d, 32(%rsp,%r10,4)
.L1027:
	addq	$1, %rdx
	cmpq	%rdx, %rdi
	je	.L1097
.L1030:
	movzbl	(%rsi,%rdx), %r13d
	movl	%r13d, %ecx
	testl	%r13d, %r13d
	je	.L1027
	movslq	%r13d, %r10
	movzwl	1024(%r8,%r10,2), %r11d
	movl	32(%rsp,%r10,4), %r9d
	movl	%r9d, %eax
	subl	%r11d, %eax
	movzwl	1124(%r8,%r10,2), %r11d
	addl	%r11d, %eax
	cltq
	movb	%r13b, 1156(%r8,%rax)
	movw	%dx, 1444(%r8,%rax,2)
	cmpl	$9, %r13d
	jg	.L1028
	movl	%r9d, %r11d
	leal	(%r9,%r9), %eax
	movl	%r13d, %r12d
	sarl	%r11d
	andl	$43690, %eax
	sall	$9, %r12d
	andl	$21845, %r11d
	orl	%edx, %r12d
	orl	%eax, %r11d
	movl	%r11d, %eax
	sall	$2, %r11d
	sarl	$2, %eax
	andl	$52428, %r11d
	andl	$13107, %eax
	orl	%r11d, %eax
	movl	%eax, %r11d
	sall	$4, %eax
	sarl	$4, %r11d
	andl	$61680, %eax
	andl	$3855, %r11d
	orl	%eax, %r11d
	movl	%r11d, %eax
	sall	$8, %r11d
	movzwl	%r11w, %r14d
	movl	%ebp, %r11d
	sarl	$8, %eax
	sall	%cl, %r11d
	movl	%ebx, %ecx
	orl	%r14d, %eax
	subl	%r13d, %ecx
	movslq	%r11d, %r11
	sarl	%cl, %eax
	cltq
	.p2align 4,,10
	.p2align 3
.L1029:
	movw	%r12w, (%r8,%rax,2)
	addq	%r11, %rax
	cmpl	$511, %eax
	jle	.L1029
	jmp	.L1028
	.p2align 4,,10
	.p2align 3
.L1046:
	leaq	.LC54(%rip), %rax
.L1010:
	movq	%rax, %fs:stbi__g_failure_reason@tpoff
	xorl	%eax, %eax
.L1008:
	movq	168(%rsp), %rdx
	subq	%fs:40, %rdx
	jne	.L1098
	addq	$184, %rsp
	.cfi_remember_state
	.cfi_def_cfa_offset 56
	popq	%rbx
	.cfi_def_cfa_offset 48
	popq	%rbp
	.cfi_def_cfa_offset 40
	popq	%r12
	.cfi_def_cfa_offset 32
	popq	%r13
	.cfi_def_cfa_offset 24
	popq	%r14
	.cfi_def_cfa_offset 16
	popq	%r15
	.cfi_def_cfa_offset 8
	ret
	.p2align 4,,10
	.p2align 3
.L1097:
	.cfi_restore_state
	movl	$1, %eax
	jmp	.L1008
	.p2align 4,,10
	.p2align 3
.L1096:
	cmpl	$32768, %eax
	jle	.L1025
	.p2align 4,,10
	.p2align 3
.L1012:
	leaq	.LC53(%rip), %rax
	jmp	.L1010
.L1098:
	call	__stack_chk_fail@PLT
	.cfi_endproc
.LFE656:
	.size	stbi__zbuild_huffman, .-stbi__zbuild_huffman
	.p2align 4
	.type	stbi__zhuffman_decode, @function
stbi__zhuffman_decode:
.LFB662:
	.cfi_startproc
	movl	16(%rdi), %edx
	movq	%rsi, %r8
	cmpl	$15, %edx
	jg	.L1100
	movq	8(%rdi), %r9
	cmpq	%r9, (%rdi)
	jnb	.L1111
	movl	20(%rdi), %esi
	jmp	.L1107
	.p2align 4,,10
	.p2align 3
.L1103:
	movq	(%rdi), %rax
	cmpq	%r9, %rax
	jnb	.L1105
	leaq	1(%rax), %rcx
	movq	%rcx, (%rdi)
	movzbl	(%rax), %eax
	movl	%edx, %ecx
	sall	%cl, %eax
	orl	%eax, %esi
.L1105:
	addl	$8, %edx
	movl	%esi, 20(%rdi)
	movl	%edx, 16(%rdi)
	cmpl	$24, %edx
	jg	.L1104
.L1107:
	movl	%esi, %eax
	movl	%edx, %ecx
	shrl	%cl, %eax
	testl	%eax, %eax
	je	.L1103
	movq	%r9, (%rdi)
	jmp	.L1104
	.p2align 4,,10
	.p2align 3
.L1100:
	movl	20(%rdi), %esi
.L1104:
	movl	%esi, %eax
	andl	$511, %eax
	movzwl	(%r8,%rax,2), %ecx
	movl	%ecx, %eax
	testl	%ecx, %ecx
	je	.L1108
	sarl	$9, %ecx
	andl	$511, %eax
	shrl	%cl, %esi
	subl	%ecx, %edx
	movl	%esi, 20(%rdi)
	movl	%edx, 16(%rdi)
	ret
	.p2align 4,,10
	.p2align 3
.L1108:
	movl	%esi, %ecx
	leal	(%rsi,%rsi), %eax
	sarl	%ecx
	andl	$43690, %eax
	andl	$21845, %ecx
	orl	%eax, %ecx
	movl	%ecx, %eax
	sall	$2, %ecx
	sarl	$2, %eax
	andl	$52428, %ecx
	andl	$13107, %eax
	orl	%ecx, %eax
	movl	%eax, %ecx
	sall	$4, %eax
	sarl	$4, %ecx
	andl	$61680, %eax
	andl	$3855, %ecx
	orl	%eax, %ecx
	movl	%ecx, %eax
	sall	$8, %ecx
	sarl	$8, %eax
	movzwl	%cx, %ecx
	orl	%ecx, %eax
	cmpl	1096(%r8), %eax
	jl	.L1112
	cmpl	1100(%r8), %eax
	jl	.L1113
	cmpl	1104(%r8), %eax
	jl	.L1114
	cmpl	1108(%r8), %eax
	jl	.L1115
	cmpl	1112(%r8), %eax
	jl	.L1116
	movl	$15, %r9d
	cmpl	1116(%r8), %eax
	jl	.L1110
.L1111:
	movl	$-1, %eax
	ret
	.p2align 4,,10
	.p2align 3
.L1113:
	movl	$11, %r9d
.L1110:
	movl	$16, %ecx
	subl	%r9d, %ecx
.L1109:
	sarl	%cl, %eax
	movslq	%r9d, %rcx
	movzwl	1024(%r8,%rcx,2), %r10d
	movzwl	1124(%r8,%rcx,2), %ecx
	subl	%r10d, %eax
	addl	%ecx, %eax
	cmpl	$287, %eax
	jg	.L1111
	cltq
	movzbl	1156(%r8,%rax), %ecx
	cmpl	%r9d, %ecx
	jne	.L1111
	movzwl	1444(%r8,%rax,2), %eax
	movl	%r9d, %ecx
	subl	%r9d, %edx
	shrl	%cl, %esi
	movl	%edx, 16(%rdi)
	movl	%esi, 20(%rdi)
	ret
	.p2align 4,,10
	.p2align 3
.L1112:
	movl	$6, %ecx
	movl	$10, %r9d
	jmp	.L1109
	.p2align 4,,10
	.p2align 3
.L1114:
	movl	$12, %r9d
	jmp	.L1110
.L1115:
	movl	$13, %r9d
	jmp	.L1110
.L1116:
	movl	$14, %r9d
	jmp	.L1110
	.cfi_endproc
.LFE662:
	.size	stbi__zhuffman_decode, .-stbi__zhuffman_decode
	.p2align 4
	.type	stbi__convert_format, @function
stbi__convert_format:
.LFB608:
	.cfi_startproc
	pushq	%r15
	.cfi_def_cfa_offset 16
	.cfi_offset 15, -16
	pushq	%r14
	.cfi_def_cfa_offset 24
	.cfi_offset 14, -24
	pushq	%r13
	.cfi_def_cfa_offset 32
	.cfi_offset 13, -32
	pushq	%r12
	.cfi_def_cfa_offset 40
	.cfi_offset 12, -40
	pushq	%rbp
	.cfi_def_cfa_offset 48
	.cfi_offset 6, -48
	pushq	%rbx
	.cfi_def_cfa_offset 56
	.cfi_offset 3, -56
	subq	$328, %rsp
	.cfi_def_cfa_offset 384
	movq	%rdi, 88(%rsp)
	movl	%ecx, 124(%rsp)
	movl	%r8d, 104(%rsp)
	cmpl	%esi, %edx
	je	.L1207
	leal	-1(%rdx), %eax
	movl	%edx, %ebx
	cmpl	$3, %eax
	ja	.L1431
	movl	124(%rsp), %r13d
	testl	%r13d, %r13d
	js	.L1120
	movl	%esi, %ebp
	je	.L1432
	movl	$2147483647, %eax
	xorl	%edx, %edx
	idivl	124(%rsp)
	cmpl	%eax, %ebx
	jg	.L1120
	movl	104(%rsp), %r11d
	testl	%r11d, %r11d
	js	.L1120
	je	.L1433
	movl	$2147483647, %eax
	imull	%ebx, %ecx
	xorl	%edx, %edx
	idivl	104(%rsp)
	cmpl	%eax, %ecx
	jle	.L1434
	.p2align 4,,10
	.p2align 3
.L1120:
	movq	88(%rsp), %rdi
	call	free@PLT
	leaq	.LC18(%rip), %rax
	movq	%rax, %fs:stbi__g_failure_reason@tpoff
	movq	$0, 96(%rsp)
.L1117:
	movq	96(%rsp), %rax
	addq	$328, %rsp
	.cfi_remember_state
	.cfi_def_cfa_offset 56
	popq	%rbx
	.cfi_def_cfa_offset 48
	popq	%rbp
	.cfi_def_cfa_offset 40
	popq	%r12
	.cfi_def_cfa_offset 32
	popq	%r13
	.cfi_def_cfa_offset 24
	popq	%r14
	.cfi_def_cfa_offset 16
	popq	%r15
	.cfi_def_cfa_offset 8
	ret
	.p2align 4,,10
	.p2align 3
.L1207:
	.cfi_restore_state
	movq	%rdi, 96(%rsp)
	jmp	.L1117
	.p2align 4,,10
	.p2align 3
.L1432:
	movl	104(%rsp), %r12d
	testl	%r12d, %r12d
	js	.L1120
	xorl	%edi, %edi
	call	malloc@PLT
	movq	%rax, 96(%rsp)
	testq	%rax, %rax
	je	.L1120
	movl	104(%rsp), %r10d
	testl	%r10d, %r10d
	je	.L1124
.L1126:
	movl	124(%rsp), %esi
	movl	$0, 16(%rsp)
	pxor	%xmm5, %xmm5
	movl	$0, 12(%rsp)
	movl	%esi, %eax
	leal	-1(%rsi), %r9d
	movl	$0, 76(%rsp)
	imull	%ebp, %eax
	movl	%r9d, %edx
	leal	-10(%rbx,%rbp,8), %ebp
	movl	%r9d, 240(%rsp)
	movl	%ebp, 152(%rsp)
	movq	%rbp, 168(%rsp)
	movl	%eax, 120(%rsp)
	movl	%esi, %eax
	imull	%ebx, %eax
	movl	%eax, 108(%rsp)
	movl	%r9d, %eax
	leaq	1(%rax), %r8
	leaq	0(,%r8,4), %rax
	movq	%r8, 264(%rsp)
	movq	%rax, 272(%rsp)
	movl	%esi, %eax
	shrl	$4, %eax
	movq	%rax, %rdi
	salq	$6, %rdi
	movq	%rdi, 160(%rsp)
	movl	%esi, %edi
	andl	$15, %esi
	andl	$-16, %edi
	movl	%esi, 244(%rsp)
	subl	%edi, %edx
	movl	%edi, %ecx
	movl	%edi, 136(%rsp)
	movl	%edx, 140(%rsp)
	movl	%r9d, %edx
	leaq	(%rcx,%rcx), %r13
	leaq	0(,%rcx,4), %rdi
	shrl	$4, %edx
	movq	%rdi, 144(%rsp)
	movq	%rdx, %rdi
	movq	%rcx, 208(%rsp)
	salq	$4, %rdx
	salq	$6, %rdi
	movq	%rdx, %r15
	movq	%r13, 248(%rsp)
	movq	%rdi, 216(%rsp)
	movl	%r9d, %edi
	andl	$15, %r9d
	movq	%r15, %r14
	andl	$-16, %edi
	movl	%r9d, 156(%rsp)
	movl	%edi, %r12d
	leaq	0(,%r12,4), %rdi
	leaq	(%r12,%r12), %rdx
	movq	%r12, %r9
	movq	%r12, %rbp
	movq	%rdi, 200(%rsp)
	leaq	0(%r13,%rcx), %rdi
	movq	%rdi, 232(%rsp)
	leaq	(%r8,%r8), %rdi
	leaq	(%rdi,%r8), %rcx
	movq	%rdx, 192(%rsp)
	movq	%rcx, 256(%rsp)
	movq	%rax, %rcx
	salq	$4, %rax
	salq	$5, %rcx
	movq	%rdi, 280(%rsp)
	movq	%rax, %r15
	movq	%rcx, 224(%rsp)
.L1206:
	movl	12(%rsp), %eax
	movq	88(%rsp), %rdi
	movl	16(%rsp), %r8d
	movq	96(%rsp), %rbx
	movq	%rax, %rsi
	addq	%rdi, %rax
	cmpl	$25, 152(%rsp)
	leaq	(%rbx,%r8), %rdi
	movq	%rax, 112(%rsp)
	movq	%rdi, 80(%rsp)
	ja	.L1128
	movq	168(%rsp), %rdi
	leaq	.L1130(%rip), %rbx
	movslq	(%rbx,%rdi,4), %rdx
	addq	%rbx, %rdx
	jmp	*%rdx
	.section	.rodata
	.align 4
	.align 4
.L1130:
	.long	.L1308-.L1130
	.long	.L1390-.L1130
	.long	.L1391-.L1130
	.long	.L1128-.L1130
	.long	.L1128-.L1130
	.long	.L1128-.L1130
	.long	.L1128-.L1130
	.long	.L1311-.L1130
	.long	.L1128-.L1130
	.long	.L1392-.L1130
	.long	.L1313-.L1130
	.long	.L1128-.L1130
	.long	.L1128-.L1130
	.long	.L1128-.L1130
	.long	.L1128-.L1130
	.long	.L1393-.L1130
	.long	.L1394-.L1130
	.long	.L1128-.L1130
	.long	.L1316-.L1130
	.long	.L1128-.L1130
	.long	.L1128-.L1130
	.long	.L1128-.L1130
	.long	.L1128-.L1130
	.long	.L1317-.L1130
	.long	.L1318-.L1130
	.long	.L1395-.L1130
	.text
	.p2align 4,,10
	.p2align 3
.L1400:
	movq	24(%rsp), %rbp
	movq	32(%rsp), %r14
	movl	%r8d, 16(%rsp)
	movl	%edi, 76(%rsp)
	movq	40(%rsp), %r15
	movl	%r9d, 12(%rsp)
	movl	20(%rsp), %r9d
.L1142:
	addl	$1, 76(%rsp)
	movl	120(%rsp), %edi
	movl	108(%rsp), %ebx
	addl	%edi, 12(%rsp)
	addl	%ebx, 16(%rsp)
	movl	76(%rsp), %eax
	cmpl	%eax, 104(%rsp)
	jne	.L1206
	.p2align 4,,10
	.p2align 3
.L1124:
	movq	88(%rsp), %rdi
	call	free@PLT
	jmp	.L1117
	.p2align 4,,10
	.p2align 3
.L1128:
	leaq	__PRETTY_FUNCTION__.43(%rip), %rcx
	movl	$1790, %edx
	leaq	.LC16(%rip), %rsi
	leaq	.LC11(%rip), %rdi
	call	__assert_fail@PLT
.L1395:
	movl	%r9d, 20(%rsp)
	movl	240(%rsp), %r9d
	movl	16(%rsp), %edi
	movl	76(%rsp), %esi
	movq	%rbp, 24(%rsp)
	movq	80(%rsp), %rdx
	movq	112(%rsp), %rax
	movq	%r14, 32(%rsp)
	movl	12(%rsp), %r8d
	movl	108(%rsp), %r10d
	movq	%r15, 40(%rsp)
	movl	120(%rsp), %ebp
	movq	272(%rsp), %r12
	movq	96(%rsp), %r14
	movq	88(%rsp), %r15
	movl	104(%rsp), %r13d
	cmpl	$-1, %r9d
	je	.L1407
	.p2align 4,,10
	.p2align 3
.L1435:
	movl	%esi, 12(%rsp)
	leaq	(%rax,%r12), %rcx
	.p2align 4,,10
	.p2align 3
.L1202:
	movzwl	(%rax), %esi
	addq	$4, %rax
	addq	$3, %rdx
	movw	%si, -3(%rdx)
	movzbl	-2(%rax), %esi
	movb	%sil, -1(%rdx)
	cmpq	%rcx, %rax
	jne	.L1202
	movl	12(%rsp), %esi
	addl	%ebp, %r8d
	addl	%r10d, %edi
	addl	$1, %esi
	cmpl	%esi, %r13d
	je	.L1124
	movl	%r8d, %eax
	movl	%edi, %edx
	addq	%r15, %rax
	addq	%r14, %rdx
	cmpl	$-1, %r9d
	jne	.L1435
.L1407:
	movl	20(%rsp), %r9d
	movq	24(%rsp), %rbp
	movl	%edi, 16(%rsp)
	movq	32(%rsp), %r14
	movq	40(%rsp), %r15
	movl	%esi, 76(%rsp)
	movl	%r8d, 12(%rsp)
	jmp	.L1142
.L1318:
	movq	%r14, 32(%rsp)
	movl	16(%rsp), %r11d
	pxor	%xmm4, %xmm4
	movl	240(%rsp), %r14d
	movl	%r9d, 20(%rsp)
	movq	%rsi, %r9
	movq	%rbp, 24(%rsp)
	movl	76(%rsp), %r10d
	movq	%r15, 40(%rsp)
	movdqa	.LC2(%rip), %xmm3
	movq	.LC4(%rip), %xmm6
	movq	80(%rsp), %rdx
	movq	.LC59(%rip), %xmm10
	movdqa	.LC62(%rip), %xmm7
	movdqa	.LC60(%rip), %xmm9
	movq	112(%rsp), %rax
	movdqa	.LC61(%rip), %xmm8
	movq	248(%rsp), %r13
	movq	96(%rsp), %rbp
	movq	88(%rsp), %r12
	cmpl	$-1, %r14d
	je	.L1406
	.p2align 4,,10
	.p2align 3
.L1436:
	cmpl	$14, %r14d
	jbe	.L1213
	movq	160(%rsp), %rbx
	movq	%rax, %rcx
	movq	%rdx, %rsi
	leaq	(%rbx,%rax), %rdi
	movl	12(%rsp), %ebx
	.p2align 4,,10
	.p2align 3
.L1196:
	movdqu	(%rcx), %xmm11
	movdqu	16(%rcx), %xmm0
	movdqa	%xmm3, %xmm13
	addq	$64, %rcx
	movdqu	-64(%rcx), %xmm2
	movdqu	-32(%rcx), %xmm12
	addq	$32, %rsi
	pand	%xmm3, %xmm0
	pand	%xmm3, %xmm11
	movdqu	-16(%rcx), %xmm1
	packuswb	%xmm0, %xmm11
	movdqu	-48(%rcx), %xmm0
	psrlw	$8, %xmm2
	pand	%xmm3, %xmm12
	psrlw	$8, %xmm1
	psrlw	$8, %xmm0
	packuswb	%xmm0, %xmm2
	movdqu	-16(%rcx), %xmm0
	pand	%xmm3, %xmm0
	packuswb	%xmm0, %xmm12
	movdqu	-32(%rcx), %xmm0
	pand	%xmm12, %xmm13
	psrlw	$8, %xmm12
	psrlw	$8, %xmm0
	packuswb	%xmm1, %xmm0
	movdqa	%xmm3, %xmm1
	pand	%xmm11, %xmm1
	psrlw	$8, %xmm11
	packuswb	%xmm13, %xmm1
	packuswb	%xmm12, %xmm11
	movdqa	%xmm3, %xmm13
	movdqa	%xmm3, %xmm12
	pand	%xmm0, %xmm13
	pand	%xmm2, %xmm12
	psrlw	$8, %xmm0
	packuswb	%xmm13, %xmm12
	psrlw	$8, %xmm2
	packuswb	%xmm0, %xmm2
	movdqa	%xmm12, %xmm13
	movdqa	%xmm1, %xmm0
	punpcklbw	%xmm4, %xmm0
	punpcklbw	%xmm4, %xmm13
	punpckhbw	%xmm4, %xmm1
	pmullw	%xmm8, %xmm13
	pmullw	%xmm9, %xmm0
	punpckhbw	%xmm4, %xmm12
	pmullw	%xmm9, %xmm1
	pmullw	%xmm8, %xmm12
	paddw	%xmm13, %xmm0
	movdqa	%xmm11, %xmm13
	punpckhbw	%xmm4, %xmm11
	punpcklbw	%xmm4, %xmm13
	pmullw	%xmm7, %xmm11
	paddw	%xmm12, %xmm1
	pmullw	%xmm7, %xmm13
	paddw	%xmm11, %xmm1
	paddw	%xmm13, %xmm0
	psrlw	$8, %xmm1
	psrlw	$8, %xmm0
	pand	%xmm3, %xmm1
	pand	%xmm3, %xmm0
	packuswb	%xmm1, %xmm0
	movdqa	%xmm0, %xmm1
	punpckhbw	%xmm2, %xmm0
	punpcklbw	%xmm2, %xmm1
	movups	%xmm0, -16(%rsi)
	movups	%xmm1, -32(%rsi)
	cmpq	%rcx, %rdi
	jne	.L1196
	movl	%ebx, 12(%rsp)
	movl	244(%rsp), %ecx
	addq	%r13, %rdx
	movq	144(%rsp), %rbx
	addq	%rbx, %rax
	testl	%ecx, %ecx
	je	.L1199
	movl	136(%rsp), %ecx
	movl	140(%rsp), %esi
.L1195:
	movl	124(%rsp), %edi
	subl	%ecx, %edi
	leal	-1(%rdi), %r15d
	cmpl	$6, %r15d
	jbe	.L1200
	leaq	(%r9,%rcx,4), %r9
	movdqa	%xmm6, %xmm11
	movdqa	%xmm6, %xmm13
	addq	%r12, %r9
	leaq	(%r8,%rcx,2), %rcx
	movq	(%r9), %xmm2
	movq	8(%r9), %xmm12
	addq	%rbp, %rcx
	movq	16(%r9), %xmm1
	movq	24(%r9), %xmm0
	pand	%xmm12, %xmm13
	psrlw	$8, %xmm12
	pand	%xmm2, %xmm11
	psrlw	$8, %xmm2
	packuswb	%xmm13, %xmm11
	movdqa	%xmm6, %xmm13
	packuswb	%xmm12, %xmm2
	movdqa	%xmm6, %xmm12
	pand	%xmm0, %xmm13
	pand	%xmm1, %xmm12
	psrlw	$8, %xmm0
	pshufd	$8, %xmm11, %xmm11
	packuswb	%xmm13, %xmm12
	psrlw	$8, %xmm1
	movdqa	%xmm6, %xmm13
	pshufd	$8, %xmm12, %xmm12
	packuswb	%xmm0, %xmm1
	movdqa	%xmm6, %xmm0
	pand	%xmm12, %xmm13
	pand	%xmm11, %xmm0
	pshufd	$8, %xmm2, %xmm2
	psrlw	$8, %xmm12
	psrlw	$8, %xmm11
	pshufd	$8, %xmm1, %xmm1
	packuswb	%xmm13, %xmm0
	packuswb	%xmm12, %xmm11
	movdqa	%xmm6, %xmm13
	movdqa	%xmm6, %xmm12
	pand	%xmm1, %xmm13
	pshufd	$8, %xmm0, %xmm0
	pand	%xmm2, %xmm12
	psrlw	$8, %xmm1
	pshufd	$8, %xmm11, %xmm11
	packuswb	%xmm13, %xmm12
	psrlw	$8, %xmm2
	pshufd	$8, %xmm12, %xmm12
	packuswb	%xmm1, %xmm2
	movdqa	%xmm0, %xmm1
	movdqa	%xmm12, %xmm13
	punpcklbw	%xmm5, %xmm1
	punpcklbw	%xmm5, %xmm12
	punpcklbw	%xmm5, %xmm13
	pshufd	$78, %xmm12, %xmm12
	punpcklbw	%xmm5, %xmm0
	movdqa	%xmm13, %xmm14
	pshufd	$78, %xmm0, %xmm0
	pshufd	$8, %xmm2, %xmm2
	pmullw	%xmm10, %xmm1
	psllw	$2, %xmm14
	paddw	%xmm13, %xmm14
	pmullw	%xmm10, %xmm0
	movdqa	%xmm14, %xmm13
	psllw	$4, %xmm13
	psubw	%xmm14, %xmm13
	movdqa	%xmm11, %xmm14
	punpcklbw	%xmm5, %xmm11
	punpcklbw	%xmm5, %xmm14
	pshufd	$78, %xmm11, %xmm11
	psllw	$1, %xmm13
	paddw	%xmm13, %xmm1
	movdqa	%xmm14, %xmm13
	psllw	$3, %xmm13
	psubw	%xmm14, %xmm13
	psllw	$2, %xmm13
	paddw	%xmm14, %xmm13
	paddw	%xmm13, %xmm1
	movdqa	%xmm12, %xmm13
	psllw	$2, %xmm13
	paddw	%xmm12, %xmm13
	psrlw	$8, %xmm1
	pand	%xmm6, %xmm1
	movdqa	%xmm13, %xmm12
	psllw	$4, %xmm12
	psubw	%xmm13, %xmm12
	psllw	$1, %xmm12
	paddw	%xmm12, %xmm0
	movdqa	%xmm11, %xmm12
	psllw	$3, %xmm11
	psubw	%xmm12, %xmm11
	psllw	$2, %xmm11
	paddw	%xmm12, %xmm11
	paddw	%xmm11, %xmm0
	psrlw	$8, %xmm0
	pand	%xmm6, %xmm0
	packuswb	%xmm0, %xmm1
	pshufd	$8, %xmm1, %xmm1
	movdqa	%xmm1, %xmm0
	punpcklbw	%xmm2, %xmm1
	punpcklbw	%xmm2, %xmm0
	pshufd	$78, %xmm1, %xmm1
	movq	%xmm0, (%rcx)
	movq	%xmm1, 8(%rcx)
	movl	%edi, %ecx
	andl	$-8, %ecx
	subl	%ecx, %esi
	leaq	(%rax,%rcx,4), %rax
	leaq	(%rdx,%rcx,2), %rdx
	andl	$7, %edi
	je	.L1199
.L1200:
	movzbl	1(%rax), %ecx
	movzbl	(%rax), %edi
	imull	$150, %ecx, %ecx
	imull	$77, %edi, %edi
	addl	%edi, %ecx
	movzbl	2(%rax), %edi
	imull	$29, %edi, %edi
	addl	%edi, %ecx
	movb	%ch, (%rdx)
	movzbl	3(%rax), %ecx
	movb	%cl, 1(%rdx)
	testl	%esi, %esi
	je	.L1199
	movzbl	4(%rax), %ecx
	movzbl	5(%rax), %r8d
	xorl	%edi, %edi
	imull	$150, %r8d, %r8d
	imull	$77, %ecx, %ecx
	addl	%r8d, %ecx
	movzbl	6(%rax), %r8d
	imull	$29, %r8d, %r8d
	addl	%r8d, %ecx
	sarl	$8, %ecx
	movb	%cl, %dil
	movl	%edi, %ecx
	movb	7(%rax), %ch
	movw	%cx, 2(%rdx)
	cmpl	$1, %esi
	je	.L1199
	movzbl	9(%rax), %ecx
	movzbl	8(%rax), %r8d
	xorl	%edi, %edi
	imull	$77, %r8d, %r8d
	imull	$150, %ecx, %ecx
	addl	%r8d, %ecx
	movzbl	10(%rax), %r8d
	imull	$29, %r8d, %r8d
	addl	%r8d, %ecx
	sarl	$8, %ecx
	movb	%cl, %dil
	movl	%edi, %ecx
	movb	11(%rax), %ch
	movw	%cx, 4(%rdx)
	cmpl	$2, %esi
	je	.L1199
	movzbl	12(%rax), %ecx
	movzbl	13(%rax), %r8d
	xorl	%edi, %edi
	imull	$150, %r8d, %r8d
	imull	$77, %ecx, %ecx
	addl	%r8d, %ecx
	movzbl	14(%rax), %r8d
	imull	$29, %r8d, %r8d
	addl	%r8d, %ecx
	sarl	$8, %ecx
	movb	%cl, %dil
	movl	%edi, %ecx
	movb	15(%rax), %ch
	movw	%cx, 6(%rdx)
	cmpl	$3, %esi
	je	.L1199
	movzbl	16(%rax), %ecx
	movzbl	17(%rax), %r8d
	xorl	%edi, %edi
	imull	$150, %r8d, %r8d
	imull	$77, %ecx, %ecx
	addl	%r8d, %ecx
	movzbl	18(%rax), %r8d
	imull	$29, %r8d, %r8d
	addl	%r8d, %ecx
	sarl	$8, %ecx
	movb	%cl, %dil
	movl	%edi, %ecx
	movb	19(%rax), %ch
	movw	%cx, 8(%rdx)
	cmpl	$4, %esi
	je	.L1199
	movzbl	20(%rax), %ecx
	movzbl	21(%rax), %r8d
	xorl	%edi, %edi
	imull	$150, %r8d, %r8d
	imull	$77, %ecx, %ecx
	addl	%r8d, %ecx
	movzbl	22(%rax), %r8d
	imull	$29, %r8d, %r8d
	addl	%r8d, %ecx
	sarl	$8, %ecx
	movb	%cl, %dil
	movl	%edi, %ebx
	movb	23(%rax), %bh
	movw	%bx, 10(%rdx)
	cmpl	$5, %esi
	je	.L1199
	movzbl	24(%rax), %ecx
	movzbl	25(%rax), %edi
	xorl	%esi, %esi
	imull	$150, %edi, %edi
	imull	$77, %ecx, %ecx
	addl	%edi, %ecx
	movzbl	26(%rax), %edi
	imull	$29, %edi, %edi
	addl	%edi, %ecx
	sarl	$8, %ecx
	movb	%cl, %sil
	movl	%esi, %ebx
	movb	27(%rax), %bh
	movw	%bx, 12(%rdx)
.L1199:
	movl	120(%rsp), %eax
	addl	%eax, 12(%rsp)
	addl	$1, %r10d
	movl	108(%rsp), %eax
	addl	%eax, %r11d
	cmpl	%r10d, 104(%rsp)
	je	.L1124
	movl	12(%rsp), %r9d
	movl	%r11d, %r8d
	leaq	0(%rbp,%r8), %rdx
	leaq	(%r12,%r9), %rax
	cmpl	$-1, %r14d
	jne	.L1436
.L1406:
	movl	20(%rsp), %r9d
	movq	24(%rsp), %rbp
	movl	%r11d, 16(%rsp)
	movq	32(%rsp), %r14
	movq	40(%rsp), %r15
	movl	%r10d, 76(%rsp)
	jmp	.L1142
.L1316:
	movl	124(%rsp), %eax
	movl	%r9d, 292(%rsp)
	movq	%rsi, %rdx
	movq	%rbp, 296(%rsp)
	andl	$15, %eax
	movq	%r14, 304(%rsp)
	movl	%eax, 288(%rsp)
	movl	240(%rsp), %eax
	movq	%r15, 312(%rsp)
	cmpl	$-1, %eax
	je	.L1402
	.p2align 4,,10
	.p2align 3
.L1437:
	cmpl	$14, %eax
	jbe	.L1211
	movq	96(%rsp), %rbx
	movq	80(%rsp), %rax
	movq	%rdx, 176(%rsp)
	movq	%r8, 184(%rsp)
	movq	112(%rsp), %r10
	leaq	3(%rbx,%r8), %r9
	movq	160(%rsp), %rbx
	movq	%rax, %rcx
	addq	%rbx, %rax
	movq	%rax, 128(%rsp)
	.p2align 4,,10
	.p2align 3
.L1174:
	movzwl	3(%r10), %ebx
	movzbl	15(%r10), %edi
	addq	$64, %rcx
	addq	$48, %r10
	movzbl	-34(%r10), %esi
	movzwl	-36(%r10), %edx
	addq	$64, %r9
	movzbl	-19(%r10), %ebp
	movzbl	-43(%r10), %eax
	movw	%bx, 56(%rsp)
	movzbl	-37(%r10), %r11d
	movzwl	-18(%r10), %r8d
	movb	%dil, 40(%rsp)
	movzwl	-21(%r10), %ebx
	movzbl	-22(%r10), %edi
	movb	%sil, 32(%rsp)
	movzwl	-24(%r10), %esi
	movzbl	-46(%r10), %r15d
	movw	%dx, 58(%rsp)
	movzbl	-25(%r10), %edx
	movzwl	-39(%r10), %r12d
	movb	%bpl, 52(%rsp)
	movzwl	-27(%r10), %ebp
	movzbl	-40(%r10), %r13d
	movb	%al, 20(%rsp)
	movzwl	-42(%r10), %r14d
	movb	%r11b, 24(%rsp)
	movw	%r8w, 66(%rsp)
	movzwl	-30(%r10), %r11d
	movzbl	-28(%r10), %r8d
	movb	%dil, 51(%rsp)
	movw	%si, 62(%rsp)
	movb	%dl, 50(%rsp)
	movw	%bp, 60(%rsp)
	movw	%bx, 64(%rsp)
	movzbl	-31(%r10), %ebx
	movzbl	-32(%r10), %edi
	movzwl	-6(%r10), %eax
	movzwl	-3(%r10), %edx
	movzwl	-15(%r10), %esi
	movb	%dil, 48(%rsp)
	movzbl	-4(%r10), %edi
	movw	%ax, 72(%rsp)
	movzbl	-13(%r10), %eax
	movb	%dil, 55(%rsp)
	movzwl	-9(%r10), %edi
	movw	%dx, 74(%rsp)
	movzbl	-7(%r10), %edx
	movw	%di, 70(%rsp)
	movzwl	-12(%r10), %edi
	movb	%al, 11(%rsp)
	movzwl	-48(%r10), %eax
	movzbl	-1(%r10), %ebp
	movb	%dl, 54(%rsp)
	movw	%di, 68(%rsp)
	movzbl	-10(%r10), %edx
	movzbl	-16(%r10), %edi
	movw	%ax, -64(%rcx)
	movb	%r15b, -62(%rcx)
	movzbl	20(%rsp), %eax
	movzwl	56(%rsp), %r15d
	movw	%r14w, -56(%rcx)
	movb	%al, -58(%rcx)
	movw	%r15w, -60(%rcx)
	movw	%r12w, -52(%rcx)
	movb	%dl, 53(%rsp)
	movb	%r13b, -54(%rcx)
	movzbl	24(%rsp), %r13d
	movzbl	40(%rsp), %r12d
	movzwl	48(%rsp), %edx
	movb	%bl, -42(%rcx)
	movzwl	58(%rsp), %r15d
	movzbl	32(%rsp), %r14d
	movb	%r13b, -50(%rcx)
	movl	%r12d, %eax
	movzwl	64(%rsp), %ebx
	movw	%r11w, -40(%rcx)
	movb	%dl, %ah
	movw	%r15w, -48(%rcx)
	movzwl	60(%rsp), %r13d
	movzbl	50(%rsp), %r11d
	movzwl	62(%rsp), %r15d
	movw	%ax, -44(%rcx)
	movzbl	52(%rsp), %eax
	movb	%r14b, -46(%rcx)
	movb	%r8b, -38(%rcx)
	movzbl	51(%rsp), %r14d
	movb	%al, -26(%rcx)
	movzbl	11(%rsp), %eax
	movzwl	66(%rsp), %r8d
	movw	%bx, -28(%rcx)
	movb	%al, -18(%rcx)
	movzwl	68(%rsp), %eax
	movb	%dil, -22(%rcx)
	movw	%si, -20(%rcx)
	movw	%ax, -16(%rcx)
	movw	%r13w, -36(%rcx)
	movb	%r11b, -34(%rcx)
	movw	%r15w, -32(%rcx)
	movb	%r14b, -30(%rcx)
	movw	%r8w, -24(%rcx)
	movzbl	53(%rsp), %r14d
	movzwl	70(%rsp), %esi
	movzbl	54(%rsp), %ebx
	movb	%bpl, -2(%rcx)
	movzwl	72(%rsp), %eax
	movzbl	55(%rsp), %edi
	movb	%r14b, -14(%rcx)
	movzwl	74(%rsp), %edx
	movw	%si, -12(%rcx)
	movb	%bl, -10(%rcx)
	movw	%ax, -8(%rcx)
	movb	%dil, -6(%rcx)
	movw	%dx, -4(%rcx)
	movb	$-1, -64(%r9)
	movb	$-1, -60(%r9)
	movb	$-1, -56(%r9)
	movb	$-1, -52(%r9)
	movb	$-1, -48(%r9)
	movb	$-1, -44(%r9)
	movb	$-1, -40(%r9)
	movb	$-1, -36(%r9)
	movb	$-1, -32(%r9)
	movb	$-1, -28(%r9)
	movb	$-1, -24(%r9)
	movb	$-1, -20(%r9)
	movb	$-1, -16(%r9)
	movb	$-1, -12(%r9)
	movb	$-1, -8(%r9)
	movb	$-1, -4(%r9)
	cmpq	%rcx, 128(%rsp)
	jne	.L1174
	movl	288(%rsp), %esi
	movq	232(%rsp), %rbx
	movq	176(%rsp), %rdx
	addq	%rbx, 112(%rsp)
	movq	184(%rsp), %r8
	movq	144(%rsp), %rbx
	addq	%rbx, 80(%rsp)
	testl	%esi, %esi
	je	.L1177
	movl	136(%rsp), %ecx
	movl	140(%rsp), %r10d
.L1173:
	movl	124(%rsp), %r11d
	subl	%ecx, %r11d
	leal	-1(%r11), %eax
	cmpl	$6, %eax
	jbe	.L1178
	movq	88(%rsp), %rdi
	leaq	(%rcx,%rcx,2), %rax
	movq	96(%rsp), %rbx
	leaq	(%r8,%rcx,4), %rcx
	addq	%rdx, %rax
	addq	%rdi, %rax
	leaq	(%rbx,%rcx), %rdx
	leaq	3(%rbx,%rcx), %rcx
	movzwl	12(%rax), %edi
	movzbl	14(%rax), %ebx
	movzbl	11(%rax), %esi
	movzbl	23(%rax), %r8d
	movzwl	21(%rax), %r9d
	movzbl	2(%rax), %r15d
	movb	%bl, 40(%rsp)
	movzbl	5(%rax), %r13d
	movzwl	9(%rax), %ebx
	movb	%sil, 32(%rsp)
	movzwl	3(%rax), %r14d
	movzbl	20(%rax), %esi
	movw	%di, 20(%rsp)
	movzbl	8(%rax), %ebp
	movzwl	18(%rax), %edi
	movb	%r8b, 48(%rsp)
	movzwl	6(%rax), %r12d
	movzbl	17(%rax), %r8d
	movw	%r9w, 24(%rsp)
	movzwl	15(%rax), %r9d
	movzwl	(%rax), %eax
	movb	%r15b, 2(%rdx)
	movzbl	32(%rsp), %r15d
	movw	%bx, 12(%rdx)
	movw	%ax, (%rdx)
	movw	%r14w, 4(%rdx)
	movb	%r13b, 6(%rdx)
	movw	%r12w, 8(%rdx)
	movb	%bpl, 10(%rdx)
	movb	%r15b, 14(%rdx)
	movzwl	20(%rsp), %eax
	movw	%r9w, 20(%rdx)
	movzbl	40(%rsp), %ebx
	movw	%ax, 16(%rdx)
	movzwl	24(%rsp), %r9d
	movl	%r11d, %eax
	movb	%r8b, 22(%rdx)
	movzbl	48(%rsp), %r8d
	andl	$-8, %eax
	movw	%di, 24(%rdx)
	movq	80(%rsp), %rdi
	subl	%eax, %r10d
	movb	%bl, 18(%rdx)
	movb	%sil, 26(%rdx)
	movw	%r9w, 28(%rdx)
	movb	%r8b, 30(%rdx)
	leaq	(%rax,%rax,2), %rdx
	leaq	(%rdi,%rax,4), %rax
	addq	%rdx, 112(%rsp)
	andl	$7, %r11d
	movb	$-1, (%rcx)
	movb	$-1, 4(%rcx)
	movb	$-1, 8(%rcx)
	movb	$-1, 12(%rcx)
	movb	$-1, 16(%rcx)
	movb	$-1, 20(%rcx)
	movb	$-1, 24(%rcx)
	movb	$-1, 28(%rcx)
	movq	%rax, 80(%rsp)
	je	.L1177
.L1178:
	movq	112(%rsp), %rbx
	movq	80(%rsp), %rdi
	movzbl	(%rbx), %eax
	movb	%al, (%rdi)
	movzbl	1(%rbx), %eax
	movb	%al, 1(%rdi)
	movzbl	2(%rbx), %eax
	movb	$-1, 3(%rdi)
	movb	%al, 2(%rdi)
	testl	%r10d, %r10d
	je	.L1177
	movzwl	3(%rbx), %eax
	movw	%ax, 4(%rdi)
	movzbl	5(%rbx), %eax
	movb	$-1, 7(%rdi)
	movb	%al, 6(%rdi)
	cmpl	$1, %r10d
	je	.L1177
	movzwl	6(%rbx), %eax
	movw	%ax, 8(%rdi)
	movzbl	8(%rbx), %eax
	movb	$-1, 11(%rdi)
	movb	%al, 10(%rdi)
	cmpl	$2, %r10d
	je	.L1177
	movzwl	9(%rbx), %eax
	movw	%ax, 12(%rdi)
	movzbl	11(%rbx), %eax
	movb	$-1, 15(%rdi)
	movb	%al, 14(%rdi)
	cmpl	$3, %r10d
	je	.L1177
	movzwl	12(%rbx), %eax
	movw	%ax, 16(%rdi)
	movzbl	14(%rbx), %eax
	movb	$-1, 19(%rdi)
	movb	%al, 18(%rdi)
	cmpl	$4, %r10d
	je	.L1177
	movzwl	15(%rbx), %eax
	movw	%ax, 20(%rdi)
	movzbl	17(%rbx), %eax
	movb	$-1, 23(%rdi)
	movb	%al, 22(%rdi)
	cmpl	$5, %r10d
	je	.L1177
	movzwl	18(%rbx), %eax
	movw	%ax, 24(%rdi)
	movzbl	20(%rbx), %eax
	movb	$-1, 27(%rdi)
	movb	%al, 26(%rdi)
.L1177:
	addl	$1, 76(%rsp)
	movl	120(%rsp), %edi
	movl	108(%rsp), %ebx
	addl	%edi, 12(%rsp)
	addl	%ebx, 16(%rsp)
	movl	76(%rsp), %eax
	cmpl	%eax, 104(%rsp)
	je	.L1124
	movl	12(%rsp), %edx
	movq	88(%rsp), %rax
	movl	16(%rsp), %r8d
	addq	%rdx, %rax
	movq	%rax, 112(%rsp)
	movq	96(%rsp), %rax
	addq	%r8, %rax
	movq	%rax, 80(%rsp)
	movl	240(%rsp), %eax
	cmpl	$-1, %eax
	jne	.L1437
.L1402:
	movl	292(%rsp), %r9d
	movq	296(%rsp), %rbp
	movq	304(%rsp), %r14
	movq	312(%rsp), %r15
	jmp	.L1142
.L1394:
	movl	240(%rsp), %ebx
	movl	%r9d, 20(%rsp)
	movl	16(%rsp), %r10d
	movq	80(%rsp), %rcx
	movq	%rbp, 24(%rsp)
	movq	112(%rsp), %rdx
	movl	12(%rsp), %r11d
	movq	%r14, 32(%rsp)
	movl	76(%rsp), %r9d
	movl	108(%rsp), %ebp
	movq	%r15, 40(%rsp)
	movl	120(%rsp), %r12d
	movq	96(%rsp), %r14
	movq	88(%rsp), %r15
	movl	104(%rsp), %r13d
	movq	256(%rsp), %rdi
	cmpl	$-1, %ebx
	je	.L1404
	.p2align 4,,10
	.p2align 3
.L1438:
	movl	%r10d, 12(%rsp)
	leaq	(%rdx,%rdi), %r8
	.p2align 4,,10
	.p2align 3
.L1182:
	movzbl	(%rdx), %eax
	movzbl	1(%rdx), %r10d
	addq	$3, %rdx
	movb	$-1, 1(%rcx)
	addq	$2, %rcx
	imull	$150, %r10d, %r10d
	imull	$77, %eax, %eax
	addl	%r10d, %eax
	movzbl	-1(%rdx), %r10d
	imull	$29, %r10d, %r10d
	addl	%r10d, %eax
	movb	%ah, -2(%rcx)
	cmpq	%r8, %rdx
	jne	.L1182
	movl	12(%rsp), %r10d
	addl	$1, %r9d
	addl	%r12d, %r11d
	addl	%ebp, %r10d
	cmpl	%r9d, %r13d
	je	.L1124
	movl	%r11d, %edx
	movl	%r10d, %ecx
	addq	%r15, %rdx
	addq	%r14, %rcx
	cmpl	$-1, %ebx
	jne	.L1438
.L1404:
	movq	24(%rsp), %rbp
	movq	32(%rsp), %r14
	movl	%r9d, 76(%rsp)
	movq	40(%rsp), %r15
	movl	20(%rsp), %r9d
	movl	%r10d, 16(%rsp)
	movl	%r11d, 12(%rsp)
	jmp	.L1142
.L1393:
	movl	%r9d, 20(%rsp)
	movl	16(%rsp), %r10d
	movq	%rbp, 24(%rsp)
	movl	240(%rsp), %ebx
	movq	80(%rsp), %rsi
	movq	112(%rsp), %rdx
	movq	%r14, 32(%rsp)
	movl	12(%rsp), %r11d
	movl	76(%rsp), %r9d
	movq	%r15, 40(%rsp)
	movl	108(%rsp), %ebp
	movl	120(%rsp), %r12d
	movq	96(%rsp), %r14
	movq	88(%rsp), %r15
	movl	104(%rsp), %r13d
	movq	256(%rsp), %rdi
	.p2align 4,,10
	.p2align 3
.L1135:
	cmpl	$-1, %ebx
	je	.L1404
	movl	%r10d, 12(%rsp)
	leaq	(%rdx,%rdi), %r8
	.p2align 4,,10
	.p2align 3
.L1180:
	movzbl	(%rdx), %eax
	movzbl	1(%rdx), %r10d
	addq	$3, %rdx
	addq	$1, %rsi
	imull	$150, %r10d, %r10d
	imull	$77, %eax, %eax
	addl	%r10d, %eax
	movzbl	-1(%rdx), %r10d
	imull	$29, %r10d, %r10d
	addl	%r10d, %eax
	movb	%ah, -1(%rsi)
	cmpq	%r8, %rdx
	jne	.L1180
	movl	12(%rsp), %r10d
	addl	$1, %r9d
	addl	%r12d, %r11d
	addl	%ebp, %r10d
	cmpl	%r9d, %r13d
	je	.L1124
	movl	%r11d, %edx
	movl	%r10d, %esi
	addq	%r15, %rdx
	addq	%r14, %rsi
	jmp	.L1135
.L1313:
	movl	124(%rsp), %ecx
	movl	12(%rsp), %ebx
	movq	%r14, 32(%rsp)
	movl	240(%rsp), %r14d
	movl	%r9d, 20(%rsp)
	movq	%rsi, %r9
	andl	$15, %ecx
	movq	%rbp, 24(%rsp)
	movq	.LC4(%rip), %xmm6
	movl	16(%rsp), %r11d
	movl	76(%rsp), %r10d
	movq	%r15, 40(%rsp)
	movq	80(%rsp), %rdx
	movq	112(%rsp), %rax
	movl	%ecx, 12(%rsp)
	movdqa	.LC2(%rip), %xmm4
	movq	248(%rsp), %r13
	movq	96(%rsp), %rbp
	movq	88(%rsp), %r12
	cmpl	$-1, %r14d
	je	.L1401
	.p2align 4,,10
	.p2align 3
.L1439:
	cmpl	$14, %r14d
	jbe	.L1210
	movq	224(%rsp), %rdi
	movq	%rax, %rsi
	movq	%rdx, %rcx
	addq	%rax, %rdi
	.p2align 4,,10
	.p2align 3
.L1167:
	movdqu	(%rsi), %xmm0
	movdqu	16(%rsi), %xmm1
	addq	$32, %rsi
	addq	$64, %rcx
	movdqu	-16(%rsi), %xmm2
	pand	%xmm4, %xmm1
	pand	%xmm4, %xmm0
	packuswb	%xmm1, %xmm0
	movdqu	-32(%rsi), %xmm1
	psrlw	$8, %xmm2
	movdqa	%xmm0, %xmm3
	movdqa	%xmm0, %xmm7
	psrlw	$8, %xmm1
	punpcklbw	%xmm0, %xmm3
	packuswb	%xmm2, %xmm1
	movdqa	%xmm0, %xmm2
	punpckhbw	%xmm0, %xmm2
	punpcklbw	%xmm1, %xmm7
	punpckhbw	%xmm1, %xmm0
	movdqa	%xmm3, %xmm1
	punpckhbw	%xmm7, %xmm3
	punpcklbw	%xmm7, %xmm1
	movups	%xmm3, -48(%rcx)
	movups	%xmm1, -64(%rcx)
	movdqa	%xmm2, %xmm1
	punpckhbw	%xmm0, %xmm2
	punpcklbw	%xmm0, %xmm1
	movups	%xmm2, -16(%rcx)
	movups	%xmm1, -32(%rcx)
	cmpq	%rsi, %rdi
	jne	.L1167
	movq	144(%rsp), %rdi
	addq	%r13, %rax
	addq	%rdi, %rdx
	movl	12(%rsp), %edi
	testl	%edi, %edi
	je	.L1170
	movl	136(%rsp), %ecx
	movl	140(%rsp), %esi
.L1166:
	movl	124(%rsp), %edi
	subl	%ecx, %edi
	leal	-1(%rdi), %r15d
	cmpl	$6, %r15d
	jbe	.L1171
	leaq	(%r9,%rcx,2), %r9
	movdqa	%xmm6, %xmm0
	movdqa	%xmm6, %xmm3
	addq	%r12, %r9
	leaq	(%r8,%rcx,4), %rcx
	movq	(%r9), %xmm1
	movq	8(%r9), %xmm2
	addq	%rbp, %rcx
	pand	%xmm2, %xmm3
	psrlw	$8, %xmm2
	pand	%xmm1, %xmm0
	packuswb	%xmm3, %xmm0
	psrlw	$8, %xmm1
	pshufd	$8, %xmm0, %xmm0
	packuswb	%xmm2, %xmm1
	movdqa	%xmm0, %xmm3
	pshufd	$8, %xmm1, %xmm1
	movdqa	%xmm0, %xmm2
	punpcklbw	%xmm0, %xmm3
	movdqa	%xmm0, %xmm7
	punpcklbw	%xmm0, %xmm2
	punpcklbw	%xmm1, %xmm7
	punpcklbw	%xmm1, %xmm0
	movdqa	%xmm3, %xmm1
	pshufd	$78, %xmm2, %xmm2
	pshufd	$78, %xmm0, %xmm0
	punpcklbw	%xmm7, %xmm1
	movq	%xmm1, (%rcx)
	punpcklbw	%xmm7, %xmm3
	movdqa	%xmm2, %xmm1
	punpcklbw	%xmm0, %xmm2
	pshufd	$78, %xmm3, %xmm3
	punpcklbw	%xmm0, %xmm1
	pshufd	$78, %xmm2, %xmm2
	movq	%xmm3, 8(%rcx)
	movq	%xmm1, 16(%rcx)
	movq	%xmm2, 24(%rcx)
	movl	%edi, %ecx
	andl	$-8, %ecx
	subl	%ecx, %esi
	leaq	(%rax,%rcx,2), %rax
	leaq	(%rdx,%rcx,4), %rdx
	andl	$7, %edi
	je	.L1170
.L1171:
	movzbl	(%rax), %ecx
	movb	%cl, 2(%rdx)
	movb	%cl, 1(%rdx)
	movb	%cl, (%rdx)
	movzbl	1(%rax), %ecx
	movb	%cl, 3(%rdx)
	testl	%esi, %esi
	je	.L1170
	movzbl	3(%rax), %ecx
	movzbl	2(%rax), %edi
	sall	$8, %ecx
	orl	%edi, %ecx
	sall	$8, %ecx
	orl	%edi, %ecx
	sall	$8, %ecx
	orl	%edi, %ecx
	movl	%ecx, 4(%rdx)
	cmpl	$1, %esi
	je	.L1170
	movzbl	5(%rax), %ecx
	movzbl	4(%rax), %edi
	sall	$8, %ecx
	orl	%edi, %ecx
	sall	$8, %ecx
	orl	%edi, %ecx
	sall	$8, %ecx
	orl	%edi, %ecx
	movl	%ecx, 8(%rdx)
	cmpl	$2, %esi
	je	.L1170
	movzbl	7(%rax), %ecx
	movzbl	6(%rax), %edi
	sall	$8, %ecx
	orl	%edi, %ecx
	sall	$8, %ecx
	orl	%edi, %ecx
	sall	$8, %ecx
	orl	%edi, %ecx
	movl	%ecx, 12(%rdx)
	cmpl	$3, %esi
	je	.L1170
	movzbl	9(%rax), %ecx
	movzbl	8(%rax), %edi
	sall	$8, %ecx
	orl	%edi, %ecx
	sall	$8, %ecx
	orl	%edi, %ecx
	sall	$8, %ecx
	orl	%edi, %ecx
	movl	%ecx, 16(%rdx)
	cmpl	$4, %esi
	je	.L1170
	movzbl	11(%rax), %ecx
	movzbl	10(%rax), %edi
	sall	$8, %ecx
	orl	%edi, %ecx
	sall	$8, %ecx
	orl	%edi, %ecx
	sall	$8, %ecx
	orl	%edi, %ecx
	movl	%ecx, 20(%rdx)
	cmpl	$5, %esi
	je	.L1170
	movzbl	13(%rax), %ecx
	movzbl	12(%rax), %eax
	sall	$8, %ecx
	orl	%eax, %ecx
	sall	$8, %ecx
	orl	%eax, %ecx
	sall	$8, %ecx
	orl	%eax, %ecx
	movl	%ecx, 24(%rdx)
.L1170:
	movl	120(%rsp), %eax
	addl	$1, %r10d
	addl	%eax, %ebx
	movl	108(%rsp), %eax
	addl	%eax, %r11d
	cmpl	%r10d, 104(%rsp)
	je	.L1124
	movl	%ebx, %r9d
	movl	%r11d, %r8d
	leaq	(%r12,%r9), %rax
	leaq	0(%rbp,%r8), %rdx
	cmpl	$-1, %r14d
	jne	.L1439
.L1401:
	movl	20(%rsp), %r9d
	movq	24(%rsp), %rbp
	movl	%r11d, 16(%rsp)
	movq	32(%rsp), %r14
	movq	40(%rsp), %r15
	movl	%r10d, 76(%rsp)
	movl	%ebx, 12(%rsp)
	jmp	.L1142
.L1392:
	movq	%r15, 40(%rsp)
	movl	16(%rsp), %r8d
	movl	%r9d, 20(%rsp)
	movl	240(%rsp), %r11d
	movl	76(%rsp), %edi
	movq	80(%rsp), %rdx
	movq	%rbp, 24(%rsp)
	movq	112(%rsp), %rax
	movl	12(%rsp), %r9d
	movq	%r14, 32(%rsp)
	movl	108(%rsp), %ebx
	movl	120(%rsp), %ebp
	movq	96(%rsp), %r13
	movq	88(%rsp), %r14
	movl	104(%rsp), %r12d
	movq	280(%rsp), %r10
	.p2align 4,,10
	.p2align 3
.L1137:
	cmpl	$-1, %r11d
	je	.L1400
	movl	%r8d, 12(%rsp)
	leaq	(%rax,%r10), %rsi
	movl	%ebx, %r8d
	.p2align 4,,10
	.p2align 3
.L1164:
	movzbl	(%rax), %ebx
	addq	$2, %rax
	addq	$3, %rdx
	movzbl	%bl, %ecx
	movb	%bl, -1(%rdx)
	movb	%bl, %ch
	movw	%cx, -3(%rdx)
	cmpq	%rsi, %rax
	jne	.L1164
	movl	%r8d, %ebx
	movl	12(%rsp), %r8d
	addl	$1, %edi
	addl	%ebp, %r9d
	addl	%ebx, %r8d
	cmpl	%edi, %r12d
	je	.L1124
	movl	%r9d, %eax
	movl	%r8d, %edx
	addq	%r14, %rax
	addq	%r13, %rdx
	jmp	.L1137
.L1391:
	movq	%r15, 40(%rsp)
	movl	16(%rsp), %r8d
	movl	%r9d, 20(%rsp)
	movl	240(%rsp), %r10d
	movl	76(%rsp), %edi
	movq	80(%rsp), %rax
	movq	%rbp, 24(%rsp)
	movq	112(%rsp), %rdx
	movl	12(%rsp), %r9d
	movq	%r14, 32(%rsp)
	movl	108(%rsp), %r11d
	movl	120(%rsp), %ebx
	movq	264(%rsp), %r12
	movq	96(%rsp), %r13
	movq	88(%rsp), %r14
	movl	104(%rsp), %ebp
	.p2align 4,,10
	.p2align 3
.L1139:
	cmpl	$-1, %r10d
	je	.L1400
	movl	%r8d, 12(%rsp)
	leaq	(%rdx,%r12), %rsi
	movl	%ebx, %r8d
	.p2align 4,,10
	.p2align 3
.L1150:
	movzbl	(%rdx), %ebx
	addq	$1, %rdx
	movb	$-1, 3(%rax)
	addq	$4, %rax
	movzbl	%bl, %ecx
	movb	%bl, -2(%rax)
	movb	%bl, %ch
	movw	%cx, -4(%rax)
	cmpq	%rsi, %rdx
	jne	.L1150
	movl	%r8d, %ebx
	movl	12(%rsp), %r8d
	addl	$1, %edi
	addl	%ebx, %r9d
	addl	%r11d, %r8d
	cmpl	%edi, %ebp
	je	.L1124
	movl	%r9d, %edx
	movl	%r8d, %eax
	addq	%r14, %rdx
	addq	%r13, %rax
	jmp	.L1139
.L1390:
	movq	%r15, 40(%rsp)
	movl	16(%rsp), %r8d
	movl	%r9d, 20(%rsp)
	movl	240(%rsp), %r10d
	movl	76(%rsp), %edi
	movq	80(%rsp), %rdx
	movq	%rbp, 24(%rsp)
	movq	112(%rsp), %rax
	movl	12(%rsp), %r9d
	movq	%r14, 32(%rsp)
	movl	108(%rsp), %r11d
	movl	120(%rsp), %ebx
	movq	264(%rsp), %r12
	movq	96(%rsp), %r13
	movq	88(%rsp), %r14
	movl	104(%rsp), %ebp
	.p2align 4,,10
	.p2align 3
.L1140:
	cmpl	$-1, %r10d
	je	.L1400
	movl	%r8d, 12(%rsp)
	leaq	(%rax,%r12), %rsi
	movl	%ebx, %r8d
	.p2align 4,,10
	.p2align 3
.L1148:
	movzbl	(%rax), %ebx
	addq	$1, %rax
	addq	$3, %rdx
	movzbl	%bl, %ecx
	movb	%bl, -1(%rdx)
	movb	%bl, %ch
	movw	%cx, -3(%rdx)
	cmpq	%rsi, %rax
	jne	.L1148
	movl	%r8d, %ebx
	movl	12(%rsp), %r8d
	addl	$1, %edi
	addl	%ebx, %r9d
	addl	%r11d, %r8d
	cmpl	%edi, %ebp
	je	.L1124
	movl	%r9d, %eax
	movl	%r8d, %edx
	addq	%r14, %rax
	addq	%r13, %rdx
	jmp	.L1140
.L1308:
	movl	124(%rsp), %ecx
	movl	240(%rsp), %r12d
	movq	%rbp, 24(%rsp)
	pcmpeqd	%xmm1, %xmm1
	movl	12(%rsp), %ebx
	movl	%r9d, 20(%rsp)
	andl	$15, %ecx
	movq	%r14, 32(%rsp)
	movl	16(%rsp), %r11d
	movl	76(%rsp), %r10d
	movq	80(%rsp), %rdx
	movl	%ecx, 12(%rsp)
	movq	.LC55(%rip), %xmm3
	movq	248(%rsp), %r13
	movq	96(%rsp), %rbp
	movq	112(%rsp), %rcx
	cmpl	$-1, %r12d
	je	.L1396
	.p2align 4,,10
	.p2align 3
.L1440:
	cmpl	$14, %r12d
	jbe	.L1208
	xorl	%ecx, %ecx
	.p2align 4,,10
	.p2align 3
.L1144:
	movdqu	(%rax,%rcx), %xmm0
	movdqa	%xmm0, %xmm2
	punpckhbw	%xmm1, %xmm0
	punpcklbw	%xmm1, %xmm2
	movups	%xmm0, 16(%rdx,%rcx,2)
	movups	%xmm2, (%rdx,%rcx,2)
	addq	$16, %rcx
	cmpq	%rcx, %r15
	jne	.L1144
	movq	208(%rsp), %rdi
	movl	12(%rsp), %r9d
	addq	%r13, %rdx
	leaq	(%rax,%rdi), %rcx
	testl	%r9d, %r9d
	je	.L1145
	movl	136(%rsp), %esi
	movl	140(%rsp), %edi
.L1143:
	movl	124(%rsp), %r9d
	subl	%esi, %r9d
	leal	-1(%r9), %r14d
	cmpl	$6, %r14d
	jbe	.L1146
	movq	(%rax,%rsi), %xmm0
	movl	%r9d, %eax
	leaq	(%r8,%rsi,2), %r8
	andl	$-8, %eax
	addq	%rbp, %r8
	movdqa	%xmm0, %xmm2
	punpcklbw	%xmm3, %xmm0
	subl	%eax, %edi
	addq	%rax, %rcx
	punpcklbw	%xmm3, %xmm2
	pshufd	$78, %xmm0, %xmm0
	leaq	(%rdx,%rax,2), %rdx
	andl	$7, %r9d
	movq	%xmm2, (%r8)
	movq	%xmm0, 8(%r8)
	je	.L1145
.L1146:
	movzbl	(%rcx), %eax
	movb	$-1, 1(%rdx)
	movb	%al, (%rdx)
	testl	%edi, %edi
	je	.L1145
	movzbl	1(%rcx), %eax
	movb	$-1, 3(%rdx)
	movb	%al, 2(%rdx)
	cmpl	$1, %edi
	je	.L1145
	movzbl	2(%rcx), %eax
	movb	$-1, 5(%rdx)
	movb	%al, 4(%rdx)
	cmpl	$2, %edi
	je	.L1145
	movzbl	3(%rcx), %eax
	movb	$-1, 7(%rdx)
	movb	%al, 6(%rdx)
	cmpl	$3, %edi
	je	.L1145
	movzbl	4(%rcx), %eax
	movb	$-1, 9(%rdx)
	movb	%al, 8(%rdx)
	cmpl	$4, %edi
	je	.L1145
	movzbl	5(%rcx), %eax
	movb	$-1, 11(%rdx)
	movb	%al, 10(%rdx)
	cmpl	$5, %edi
	je	.L1145
	movzbl	6(%rcx), %eax
	movb	$-1, 13(%rdx)
	movb	%al, 12(%rdx)
.L1145:
	movl	120(%rsp), %eax
	addl	$1, %r10d
	addl	%eax, %ebx
	movl	108(%rsp), %eax
	addl	%eax, %r11d
	cmpl	%r10d, 104(%rsp)
	je	.L1124
	movq	88(%rsp), %rsi
	movl	%ebx, %eax
	movl	%r11d, %r8d
	leaq	0(%rbp,%r8), %rdx
	addq	%rsi, %rax
	movq	%rax, %rcx
	cmpl	$-1, %r12d
	jne	.L1440
.L1396:
	movl	20(%rsp), %r9d
	movq	24(%rsp), %rbp
	movl	%r11d, 16(%rsp)
	movl	%r10d, 76(%rsp)
	movq	32(%rsp), %r14
	movl	%ebx, 12(%rsp)
	jmp	.L1142
.L1434:
	imull	%r8d, %ecx
	movslq	%ecx, %rdi
	call	malloc@PLT
	movq	%rax, 96(%rsp)
	testq	%rax, %rax
	jne	.L1126
	jmp	.L1120
	.p2align 4,,10
	.p2align 3
.L1311:
	movdqa	.LC2(%rip), %xmm2
	movl	240(%rsp), %edi
	movq	%rsi, %r13
	movq	.LC4(%rip), %xmm3
	movl	76(%rsp), %r10d
	movq	80(%rsp), %rdx
	movq	112(%rsp), %rax
	movq	96(%rsp), %r11
	movq	88(%rsp), %rbx
	.p2align 4,,10
	.p2align 3
.L1138:
	cmpl	$-1, %edi
	je	.L1405
.L1441:
	cmpl	$15, %edi
	jbe	.L1209
	xorl	%ecx, %ecx
	.p2align 4,,10
	.p2align 3
.L1153:
	movdqu	(%rax,%rcx,2), %xmm0
	movdqu	16(%rax,%rcx,2), %xmm1
	pand	%xmm2, %xmm0
	pand	%xmm2, %xmm1
	packuswb	%xmm1, %xmm0
	movups	%xmm0, (%rdx,%rcx)
	addq	$16, %rcx
	cmpq	%rcx, %r14
	jne	.L1153
	movq	192(%rsp), %rsi
	movl	156(%rsp), %r12d
	addq	%rbp, %rdx
	addq	%rsi, %rax
	movl	%r9d, %esi
.L1152:
	movl	%edi, %ecx
	subl	%esi, %ecx
	cmpl	$7, %ecx
	jbe	.L1154
	leaq	0(%r13,%rsi,2), %r13
	andl	$-8, %ecx
	addq	%r11, %rsi
	addq	%rbx, %r13
	subl	%ecx, %r12d
	leaq	(%rax,%rcx,2), %rax
	addq	%rcx, %rdx
	movq	0(%r13), %xmm0
	movq	8(%r13), %xmm1
	pand	%xmm3, %xmm0
	pand	%xmm3, %xmm1
	packuswb	%xmm1, %xmm0
	pshufd	$8, %xmm0, %xmm0
	movq	%xmm0, (%rsi,%r8)
.L1154:
	movzbl	(%rax), %ecx
	movb	%cl, (%rdx)
	testl	%r12d, %r12d
	je	.L1155
	movzbl	2(%rax), %ecx
	movb	%cl, 1(%rdx)
	cmpl	$1, %r12d
	je	.L1155
	movzbl	4(%rax), %ecx
	movb	%cl, 2(%rdx)
	cmpl	$2, %r12d
	je	.L1155
	movzbl	6(%rax), %ecx
	movb	%cl, 3(%rdx)
	cmpl	$3, %r12d
	je	.L1155
	movzbl	8(%rax), %ecx
	movb	%cl, 4(%rdx)
	cmpl	$4, %r12d
	je	.L1155
	movzbl	10(%rax), %ecx
	movb	%cl, 5(%rdx)
	cmpl	$5, %r12d
	je	.L1155
	movzbl	12(%rax), %ecx
	movb	%cl, 6(%rdx)
	cmpl	$6, %r12d
	je	.L1155
	movzbl	14(%rax), %eax
	movl	120(%rsp), %esi
	addl	$1, %r10d
	addl	%esi, 12(%rsp)
	movl	108(%rsp), %esi
	movb	%al, 7(%rdx)
	addl	%esi, 16(%rsp)
	cmpl	%r10d, 104(%rsp)
	je	.L1124
	movl	12(%rsp), %r13d
	movl	16(%rsp), %r8d
	leaq	(%rbx,%r13), %rax
	leaq	(%r11,%r8), %rdx
	cmpl	$-1, %edi
	jne	.L1441
	.p2align 4,,10
	.p2align 3
.L1405:
	movl	%r10d, 76(%rsp)
	jmp	.L1142
.L1317:
	movq	%rsi, %r12
	movdqa	.LC2(%rip), %xmm2
	movdqa	.LC60(%rip), %xmm8
	pxor	%xmm3, %xmm3
	movdqa	.LC61(%rip), %xmm7
	movl	240(%rsp), %edi
	movdqa	.LC62(%rip), %xmm6
	movl	76(%rsp), %r10d
	movq	.LC4(%rip), %xmm4
	movq	80(%rsp), %rsi
	movq	.LC59(%rip), %xmm9
	movq	112(%rsp), %rdx
	movq	96(%rsp), %r11
	movq	88(%rsp), %rbx
	.p2align 4,,10
	.p2align 3
.L1132:
	cmpl	$-1, %edi
	je	.L1405
	cmpl	$15, %edi
	jbe	.L1212
	movq	216(%rsp), %r13
	movq	%rdx, %rax
	movq	%rsi, %rcx
	addq	%rdx, %r13
	.p2align 4,,10
	.p2align 3
.L1185:
	movdqu	(%rax), %xmm11
	movdqu	16(%rax), %xmm0
	movdqa	%xmm2, %xmm10
	addq	$64, %rax
	movdqu	-16(%rax), %xmm1
	movdqu	-16(%rax), %xmm12
	addq	$16, %rcx
	pand	%xmm2, %xmm0
	pand	%xmm2, %xmm11
	packuswb	%xmm0, %xmm11
	movdqu	-32(%rax), %xmm0
	pand	%xmm2, %xmm1
	psrlw	$8, %xmm12
	pand	%xmm2, %xmm0
	packuswb	%xmm1, %xmm0
	movdqa	%xmm2, %xmm1
	pand	%xmm0, %xmm10
	psrlw	$8, %xmm0
	pand	%xmm11, %xmm1
	psrlw	$8, %xmm11
	packuswb	%xmm10, %xmm1
	movdqu	-48(%rax), %xmm10
	packuswb	%xmm0, %xmm11
	movdqu	-64(%rax), %xmm0
	psrlw	$8, %xmm10
	psrlw	$8, %xmm0
	packuswb	%xmm10, %xmm0
	movdqu	-32(%rax), %xmm10
	pand	%xmm2, %xmm0
	psrlw	$8, %xmm10
	packuswb	%xmm12, %xmm10
	pand	%xmm2, %xmm10
	packuswb	%xmm10, %xmm0
	movdqa	%xmm1, %xmm10
	punpckhbw	%xmm3, %xmm1
	movdqa	%xmm0, %xmm12
	punpcklbw	%xmm3, %xmm10
	punpckhbw	%xmm3, %xmm0
	pmullw	%xmm8, %xmm10
	pmullw	%xmm8, %xmm1
	punpcklbw	%xmm3, %xmm12
	pmullw	%xmm7, %xmm12
	pmullw	%xmm7, %xmm0
	paddw	%xmm12, %xmm10
	movdqa	%xmm11, %xmm12
	punpckhbw	%xmm3, %xmm11
	punpcklbw	%xmm3, %xmm12
	pmullw	%xmm6, %xmm11
	paddw	%xmm1, %xmm0
	pmullw	%xmm6, %xmm12
	paddw	%xmm11, %xmm0
	paddw	%xmm12, %xmm10
	psrlw	$8, %xmm0
	psrlw	$8, %xmm10
	pand	%xmm2, %xmm0
	pand	%xmm2, %xmm10
	packuswb	%xmm0, %xmm10
	movups	%xmm10, -16(%rcx)
	cmpq	%rax, %r13
	jne	.L1185
	movq	200(%rsp), %rax
	movl	156(%rsp), %r13d
	addq	%rbp, %rsi
	movl	%r9d, %ecx
	addq	%rax, %rdx
.L1184:
	movl	%edi, %eax
	subl	%ecx, %eax
	cmpl	$7, %eax
	jbe	.L1186
	leaq	(%r12,%rcx,4), %r12
	movdqa	%xmm4, %xmm11
	movdqa	%xmm4, %xmm0
	andl	$-8, %eax
	addq	%rbx, %r12
	movdqa	%xmm4, %xmm12
	movdqa	%xmm4, %xmm15
	addq	%r11, %rcx
	movq	(%r12), %xmm10
	subl	%eax, %r13d
	leaq	(%rdx,%rax,4), %rdx
	addq	%rax, %rsi
	movq	8(%r12), %xmm14
	movq	16(%r12), %xmm1
	movq	24(%r12), %xmm13
	pand	%xmm10, %xmm11
	psrlw	$8, %xmm10
	pand	%xmm14, %xmm0
	psrlw	$8, %xmm14
	pand	%xmm1, %xmm12
	packuswb	%xmm0, %xmm11
	movdqa	%xmm4, %xmm0
	packuswb	%xmm14, %xmm10
	pand	%xmm13, %xmm0
	psrlw	$8, %xmm1
	pshufd	$8, %xmm10, %xmm10
	psrlw	$8, %xmm13
	pand	%xmm4, %xmm10
	packuswb	%xmm0, %xmm12
	packuswb	%xmm13, %xmm1
	pshufd	$8, %xmm11, %xmm11
	pshufd	$8, %xmm12, %xmm12
	pshufd	$8, %xmm1, %xmm1
	movdqa	%xmm4, %xmm0
	pand	%xmm12, %xmm15
	pand	%xmm4, %xmm1
	psrlw	$8, %xmm12
	pand	%xmm11, %xmm0
	packuswb	%xmm1, %xmm10
	psrlw	$8, %xmm11
	packuswb	%xmm15, %xmm0
	pshufd	$8, %xmm10, %xmm10
	packuswb	%xmm12, %xmm11
	pshufd	$8, %xmm0, %xmm0
	movdqa	%xmm10, %xmm1
	movdqa	%xmm0, %xmm13
	pshufd	$8, %xmm11, %xmm11
	punpcklbw	%xmm5, %xmm1
	punpcklbw	%xmm5, %xmm13
	punpcklbw	%xmm5, %xmm10
	movdqa	%xmm1, %xmm12
	pshufd	$78, %xmm10, %xmm10
	punpcklbw	%xmm5, %xmm0
	pmullw	%xmm9, %xmm13
	psllw	$2, %xmm12
	pshufd	$78, %xmm0, %xmm0
	paddw	%xmm1, %xmm12
	pmullw	%xmm9, %xmm0
	movdqa	%xmm12, %xmm1
	psllw	$4, %xmm1
	psubw	%xmm12, %xmm1
	psllw	$1, %xmm1
	paddw	%xmm13, %xmm1
	movdqa	%xmm11, %xmm13
	punpcklbw	%xmm5, %xmm13
	movdqa	%xmm13, %xmm12
	psllw	$3, %xmm12
	psubw	%xmm13, %xmm12
	psllw	$2, %xmm12
	paddw	%xmm13, %xmm12
	paddw	%xmm12, %xmm1
	movdqa	%xmm10, %xmm12
	psllw	$2, %xmm12
	paddw	%xmm10, %xmm12
	psrlw	$8, %xmm1
	pand	%xmm4, %xmm1
	movdqa	%xmm12, %xmm10
	psllw	$4, %xmm10
	psubw	%xmm12, %xmm10
	psllw	$1, %xmm10
	paddw	%xmm10, %xmm0
	movdqa	%xmm11, %xmm10
	punpcklbw	%xmm5, %xmm10
	pshufd	$78, %xmm10, %xmm10
	movdqa	%xmm10, %xmm11
	psllw	$3, %xmm11
	psubw	%xmm10, %xmm11
	psllw	$2, %xmm11
	paddw	%xmm10, %xmm11
	paddw	%xmm11, %xmm0
	psrlw	$8, %xmm0
	pand	%xmm4, %xmm0
	packuswb	%xmm0, %xmm1
	pshufd	$8, %xmm1, %xmm1
	movq	%xmm1, (%rcx,%r8)
.L1186:
	movzbl	1(%rdx), %eax
	movzbl	(%rdx), %ecx
	imull	$150, %eax, %eax
	imull	$77, %ecx, %ecx
	addl	%ecx, %eax
	movzbl	2(%rdx), %ecx
	imull	$29, %ecx, %ecx
	addl	%ecx, %eax
	movb	%ah, (%rsi)
	testl	%r13d, %r13d
	je	.L1187
	movzbl	5(%rdx), %eax
	movzbl	4(%rdx), %ecx
	imull	$150, %eax, %eax
	imull	$77, %ecx, %ecx
	addl	%ecx, %eax
	movzbl	6(%rdx), %ecx
	imull	$29, %ecx, %ecx
	addl	%ecx, %eax
	movb	%ah, 1(%rsi)
	cmpl	$1, %r13d
	je	.L1187
	movzbl	8(%rdx), %eax
	movzbl	9(%rdx), %ecx
	imull	$77, %eax, %eax
	imull	$150, %ecx, %ecx
	addl	%ecx, %eax
	movzbl	10(%rdx), %ecx
	imull	$29, %ecx, %ecx
	addl	%ecx, %eax
	movb	%ah, 2(%rsi)
	cmpl	$2, %r13d
	je	.L1187
	movzbl	13(%rdx), %eax
	movzbl	12(%rdx), %ecx
	imull	$150, %eax, %eax
	imull	$77, %ecx, %ecx
	addl	%ecx, %eax
	movzbl	14(%rdx), %ecx
	imull	$29, %ecx, %ecx
	addl	%ecx, %eax
	movb	%ah, 3(%rsi)
	cmpl	$3, %r13d
	je	.L1187
	movzbl	17(%rdx), %eax
	movzbl	16(%rdx), %ecx
	imull	$150, %eax, %eax
	imull	$77, %ecx, %ecx
	addl	%ecx, %eax
	movzbl	18(%rdx), %ecx
	imull	$29, %ecx, %ecx
	addl	%ecx, %eax
	movb	%ah, 4(%rsi)
	cmpl	$4, %r13d
	je	.L1187
	movzbl	21(%rdx), %eax
	movzbl	20(%rdx), %ecx
	imull	$150, %eax, %eax
	imull	$77, %ecx, %ecx
	addl	%ecx, %eax
	movzbl	22(%rdx), %ecx
	imull	$29, %ecx, %ecx
	addl	%ecx, %eax
	movb	%ah, 5(%rsi)
	cmpl	$5, %r13d
	je	.L1187
	movzbl	25(%rdx), %eax
	movzbl	24(%rdx), %ecx
	imull	$150, %eax, %eax
	imull	$77, %ecx, %ecx
	addl	%ecx, %eax
	movzbl	26(%rdx), %ecx
	imull	$29, %ecx, %ecx
	addl	%ecx, %eax
	movb	%ah, 6(%rsi)
	cmpl	$6, %r13d
	je	.L1187
	movzbl	28(%rdx), %ecx
	movzbl	29(%rdx), %eax
	addl	$1, %r10d
	movzbl	30(%rdx), %edx
	imull	$77, %ecx, %ecx
	imull	$150, %eax, %eax
	imull	$29, %edx, %edx
	addl	%ecx, %eax
	addl	%edx, %eax
	movb	%ah, 7(%rsi)
	movl	120(%rsp), %esi
	addl	%esi, 12(%rsp)
	movl	108(%rsp), %esi
	addl	%esi, 16(%rsp)
	cmpl	%r10d, 104(%rsp)
	je	.L1124
	movl	12(%rsp), %r12d
	movl	16(%rsp), %r8d
	leaq	(%rbx,%r12), %rdx
	leaq	(%r11,%r8), %rsi
	jmp	.L1132
	.p2align 4,,10
	.p2align 3
.L1155:
	movl	120(%rsp), %esi
	movl	108(%rsp), %edx
	addl	$1, %r10d
	addl	%esi, 12(%rsp)
	movl	12(%rsp), %eax
	addl	%edx, 16(%rsp)
	movl	16(%rsp), %esi
	cmpl	%r10d, 104(%rsp)
	je	.L1124
	movl	%eax, %r13d
	movl	%esi, %r8d
	leaq	(%rbx,%r13), %rax
	leaq	(%r11,%r8), %rdx
	jmp	.L1138
	.p2align 4,,10
	.p2align 3
.L1187:
	movl	120(%rsp), %esi
	movl	108(%rsp), %edx
	addl	$1, %r10d
	addl	%esi, 12(%rsp)
	movl	12(%rsp), %eax
	addl	%edx, 16(%rsp)
	movl	16(%rsp), %esi
	cmpl	%r10d, 104(%rsp)
	je	.L1124
	movl	%eax, %r12d
	movl	%esi, %r8d
	leaq	(%rbx,%r12), %rdx
	leaq	(%r11,%r8), %rsi
	jmp	.L1132
.L1212:
	movl	%edi, %r13d
	xorl	%ecx, %ecx
	jmp	.L1184
.L1213:
	movl	%r14d, %esi
	xorl	%ecx, %ecx
	jmp	.L1195
.L1210:
	movl	%r14d, %esi
	xorl	%ecx, %ecx
	jmp	.L1166
.L1208:
	movl	%r12d, %edi
	xorl	%esi, %esi
	jmp	.L1143
.L1211:
	movl	%eax, %r10d
	xorl	%ecx, %ecx
	jmp	.L1173
.L1209:
	movl	%edi, %r12d
	xorl	%esi, %esi
	jmp	.L1152
.L1433:
	xorl	%edi, %edi
	call	malloc@PLT
	movq	%rax, 96(%rsp)
	testq	%rax, %rax
	jne	.L1124
	jmp	.L1120
.L1431:
	leaq	__PRETTY_FUNCTION__.43(%rip), %rcx
	movl	$1761, %edx
	leaq	.LC16(%rip), %rsi
	leaq	.LC17(%rip), %rdi
	call	__assert_fail@PLT
	.cfi_endproc
.LFE608:
	.size	stbi__convert_format, .-stbi__convert_format
	.p2align 4
	.type	stbi__gif_parse_colortable, @function
stbi__gif_parse_colortable:
.LFB721:
	.cfi_startproc
	pushq	%r15
	.cfi_def_cfa_offset 16
	.cfi_offset 15, -16
	movl	%ecx, %r15d
	pushq	%r14
	.cfi_def_cfa_offset 24
	.cfi_offset 14, -24
	movslq	%edx, %r14
	pushq	%r13
	.cfi_def_cfa_offset 32
	.cfi_offset 13, -32
	pushq	%r12
	.cfi_def_cfa_offset 40
	.cfi_offset 12, -40
	movq	%rsi, %r12
	pushq	%rbp
	.cfi_def_cfa_offset 48
	.cfi_offset 6, -48
	xorl	%ebp, %ebp
	pushq	%rbx
	.cfi_def_cfa_offset 56
	.cfi_offset 3, -56
	movq	%rdi, %rbx
	subq	$24, %rsp
	.cfi_def_cfa_offset 80
	jmp	.L1455
	.p2align 4,,10
	.p2align 3
.L1443:
	movl	48(%rbx), %ecx
	xorl	%r13d, %r13d
	testl	%ecx, %ecx
	jne	.L1461
.L1444:
	movb	%r13b, 2(%r12,%rbp,4)
	movq	192(%rbx), %rax
	cmpq	200(%rbx), %rax
	jb	.L1462
	movl	48(%rbx), %edx
	xorl	%r13d, %r13d
	testl	%edx, %edx
	jne	.L1463
.L1448:
	movb	%r13b, 1(%r12,%rbp,4)
	movq	192(%rbx), %rax
	cmpq	200(%rbx), %rax
	jb	.L1464
	movl	48(%rbx), %eax
	xorl	%r13d, %r13d
	testl	%eax, %eax
	jne	.L1465
.L1452:
	cmpl	%ebp, %r15d
	movb	%r13b, (%r12,%rbp,4)
	setne	%al
	negl	%eax
	movb	%al, 3(%r12,%rbp,4)
	addq	$1, %rbp
	cmpq	%rbp, %r14
	je	.L1466
.L1455:
	movq	192(%rbx), %rax
	cmpq	200(%rbx), %rax
	jnb	.L1443
	leaq	1(%rax), %rdx
	movq	%rdx, 192(%rbx)
	movzbl	(%rax), %r13d
	jmp	.L1444
	.p2align 4,,10
	.p2align 3
.L1464:
	leaq	1(%rax), %rdx
	movq	%rdx, 192(%rbx)
	movzbl	(%rax), %r13d
	jmp	.L1452
	.p2align 4,,10
	.p2align 3
.L1462:
	leaq	1(%rax), %rdx
	movq	%rdx, 192(%rbx)
	movzbl	(%rax), %r13d
	jmp	.L1448
	.p2align 4,,10
	.p2align 3
.L1463:
	leaq	56(%rbx), %rcx
	movl	52(%rbx), %edx
	movq	40(%rbx), %rdi
	movq	%rcx, 8(%rsp)
	movq	%rcx, %rsi
	call	*16(%rbx)
	movq	192(%rbx), %rdx
	movq	8(%rsp), %rcx
	subq	208(%rbx), %rdx
	addl	%edx, 184(%rbx)
	testl	%eax, %eax
	leaq	57(%rbx), %rdx
	jne	.L1449
	movl	$0, 48(%rbx)
	movq	%rdx, %rcx
	movb	$0, 56(%rbx)
.L1450:
	movq	%rcx, 200(%rbx)
	movq	%rdx, 192(%rbx)
	jmp	.L1448
	.p2align 4,,10
	.p2align 3
.L1461:
	leaq	56(%rbx), %rcx
	movl	52(%rbx), %edx
	movq	40(%rbx), %rdi
	movq	%rcx, 8(%rsp)
	movq	%rcx, %rsi
	call	*16(%rbx)
	movq	192(%rbx), %rdx
	movq	8(%rsp), %rcx
	subq	208(%rbx), %rdx
	addl	%edx, 184(%rbx)
	testl	%eax, %eax
	leaq	57(%rbx), %rdx
	jne	.L1445
	movl	$0, 48(%rbx)
	movq	%rdx, %rcx
	movb	$0, 56(%rbx)
.L1446:
	movq	%rcx, 200(%rbx)
	movq	%rdx, 192(%rbx)
	jmp	.L1444
	.p2align 4,,10
	.p2align 3
.L1465:
	leaq	56(%rbx), %rcx
	movl	52(%rbx), %edx
	movq	40(%rbx), %rdi
	movq	%rcx, 8(%rsp)
	movq	%rcx, %rsi
	call	*16(%rbx)
	movq	192(%rbx), %rdx
	movq	8(%rsp), %rcx
	subq	208(%rbx), %rdx
	addl	%edx, 184(%rbx)
	testl	%eax, %eax
	leaq	57(%rbx), %rdx
	jne	.L1453
	movl	$0, 48(%rbx)
	movq	%rdx, %rcx
	movb	$0, 56(%rbx)
.L1454:
	movq	%rcx, 200(%rbx)
	movq	%rdx, 192(%rbx)
	jmp	.L1452
	.p2align 4,,10
	.p2align 3
.L1466:
	addq	$24, %rsp
	.cfi_remember_state
	.cfi_def_cfa_offset 56
	popq	%rbx
	.cfi_def_cfa_offset 48
	popq	%rbp
	.cfi_def_cfa_offset 40
	popq	%r12
	.cfi_def_cfa_offset 32
	popq	%r13
	.cfi_def_cfa_offset 24
	popq	%r14
	.cfi_def_cfa_offset 16
	popq	%r15
	.cfi_def_cfa_offset 8
	ret
	.p2align 4,,10
	.p2align 3
.L1449:
	.cfi_restore_state
	cltq
	movzbl	56(%rbx), %r13d
	addq	%rax, %rcx
	jmp	.L1450
	.p2align 4,,10
	.p2align 3
.L1445:
	cltq
	movzbl	56(%rbx), %r13d
	addq	%rax, %rcx
	jmp	.L1446
	.p2align 4,,10
	.p2align 3
.L1453:
	cltq
	movzbl	56(%rbx), %r13d
	addq	%rax, %rcx
	jmp	.L1454
	.cfi_endproc
.LFE721:
	.size	stbi__gif_parse_colortable, .-stbi__gif_parse_colortable
	.p2align 4
	.type	stbi__pnm_skip_whitespace, @function
stbi__pnm_skip_whitespace:
.LFB744:
	.cfi_startproc
	pushq	%r13
	.cfi_def_cfa_offset 16
	.cfi_offset 13, -16
	pushq	%r12
	.cfi_def_cfa_offset 24
	.cfi_offset 12, -24
	pushq	%rbp
	.cfi_def_cfa_offset 32
	.cfi_offset 6, -32
	movq	%rsi, %rbp
	pushq	%rbx
	.cfi_def_cfa_offset 40
	.cfi_offset 3, -40
	movq	%rdi, %rbx
	subq	$8, %rsp
	.cfi_def_cfa_offset 48
	.p2align 4,,10
	.p2align 3
.L1484:
	cmpq	$0, 16(%rbx)
	je	.L1521
	movq	40(%rbx), %rdi
	call	*32(%rbx)
	testl	%eax, %eax
	je	.L1473
	movl	48(%rbx), %edi
	testl	%edi, %edi
	je	.L1474
	movq	192(%rbx), %rcx
	movq	%rcx, %rdx
	cmpq	200(%rbx), %rcx
	jnb	.L1522
.L1471:
	movzbl	0(%rbp), %eax
	cmpb	$32, %al
	je	.L1478
	cmpb	$9, %al
	je	.L1478
	subl	$10, %eax
	cmpb	$3, %al
	jbe	.L1523
.L1474:
	cmpq	$0, 16(%rbx)
	je	.L1490
.L1485:
	movq	40(%rbx), %rdi
	call	*32(%rbx)
	testl	%eax, %eax
	je	.L1487
	movl	48(%rbx), %ecx
	testl	%ecx, %ecx
	je	.L1467
.L1490:
	movq	200(%rbx), %rax
	cmpq	%rax, 192(%rbx)
	jnb	.L1467
.L1487:
	cmpb	$35, 0(%rbp)
	jne	.L1467
	cmpq	$0, 16(%rbx)
	je	.L1499
	movq	40(%rbx), %rdi
	call	*32(%rbx)
	testl	%eax, %eax
	je	.L1498
.L1524:
	movl	48(%rbx), %eax
	testl	%eax, %eax
	je	.L1484
.L1499:
	movq	192(%rbx), %rax
	cmpq	200(%rbx), %rax
	jnb	.L1484
	movzbl	0(%rbp), %edx
	cmpb	$10, %dl
	je	.L1484
	cmpb	$13, %dl
	je	.L1484
.L1502:
	leaq	1(%rax), %rdx
	movq	%rdx, 192(%rbx)
	movzbl	(%rax), %r12d
.L1492:
	movb	%r12b, 0(%rbp)
	cmpq	$0, 16(%rbx)
	je	.L1499
	movq	40(%rbx), %rdi
	call	*32(%rbx)
	testl	%eax, %eax
	jne	.L1524
.L1498:
	movzbl	0(%rbp), %eax
	cmpb	$13, %al
	je	.L1484
	cmpb	$10, %al
	je	.L1484
	movq	192(%rbx), %rax
	cmpq	200(%rbx), %rax
	jb	.L1502
	movl	48(%rbx), %edx
	xorl	%r12d, %r12d
	testl	%edx, %edx
	je	.L1492
	leaq	56(%rbx), %r13
	movl	52(%rbx), %edx
	movq	40(%rbx), %rdi
	movq	%r13, %rsi
	call	*16(%rbx)
	movq	192(%rbx), %rdx
	subq	208(%rbx), %rdx
	addl	%edx, 184(%rbx)
	leaq	57(%rbx), %rdx
	testl	%eax, %eax
	jne	.L1493
	movl	$0, 48(%rbx)
	movq	%rdx, %r13
	movb	$0, 56(%rbx)
.L1494:
	movq	%r13, 200(%rbx)
	movq	%rdx, 192(%rbx)
	jmp	.L1492
	.p2align 4,,10
	.p2align 3
.L1521:
	movq	192(%rbx), %rcx
	movq	%rcx, %rdx
	cmpq	200(%rbx), %rcx
	jb	.L1471
.L1467:
	addq	$8, %rsp
	.cfi_remember_state
	.cfi_def_cfa_offset 40
	popq	%rbx
	.cfi_def_cfa_offset 32
	popq	%rbp
	.cfi_def_cfa_offset 24
	popq	%r12
	.cfi_def_cfa_offset 16
	popq	%r13
	.cfi_def_cfa_offset 8
	ret
	.p2align 4,,10
	.p2align 3
.L1473:
	.cfi_restore_state
	movzbl	0(%rbp), %eax
	cmpb	$32, %al
	je	.L1480
	cmpb	$9, %al
	jne	.L1476
.L1480:
	movq	192(%rbx), %rdx
	cmpq	200(%rbx), %rdx
	jb	.L1478
	movl	48(%rbx), %esi
	xorl	%r12d, %r12d
	testl	%esi, %esi
	jne	.L1525
.L1481:
	movb	%r12b, 0(%rbp)
	jmp	.L1484
.L1523:
	movq	%rcx, %rdx
	.p2align 4,,10
	.p2align 3
.L1478:
	leaq	1(%rdx), %rax
	movq	%rax, 192(%rbx)
	movzbl	(%rdx), %r12d
	jmp	.L1481
	.p2align 4,,10
	.p2align 3
.L1525:
	leaq	56(%rbx), %r13
	movl	52(%rbx), %edx
	movq	40(%rbx), %rdi
	movq	%r13, %rsi
	call	*16(%rbx)
	movq	192(%rbx), %rdx
	subq	208(%rbx), %rdx
	addl	%edx, 184(%rbx)
	leaq	57(%rbx), %rdx
	testl	%eax, %eax
	jne	.L1482
	movl	$0, 48(%rbx)
	movq	%rdx, %r13
	movb	$0, 56(%rbx)
.L1483:
	movq	%r13, 200(%rbx)
	movq	%rdx, 192(%rbx)
	jmp	.L1481
	.p2align 4,,10
	.p2align 3
.L1493:
	cltq
	movzbl	56(%rbx), %r12d
	addq	%rax, %r13
	jmp	.L1494
	.p2align 4,,10
	.p2align 3
.L1476:
	subl	$10, %eax
	cmpb	$3, %al
	jbe	.L1480
	jmp	.L1474
	.p2align 4,,10
	.p2align 3
.L1482:
	cltq
	movzbl	56(%rbx), %r12d
	addq	%rax, %r13
	jmp	.L1483
	.p2align 4,,10
	.p2align 3
.L1522:
	cmpq	$0, 16(%rbx)
	jne	.L1485
	jmp	.L1467
	.cfi_endproc
.LFE744:
	.size	stbi__pnm_skip_whitespace, .-stbi__pnm_skip_whitespace
	.section	.rodata.str1.1
.LC63:
	.string	"integer parse overflow"
	.text
	.p2align 4
	.type	stbi__pnm_getinteger, @function
stbi__pnm_getinteger:
.LFB746:
	.cfi_startproc
	pushq	%r13
	.cfi_def_cfa_offset 16
	.cfi_offset 13, -16
	pushq	%r12
	.cfi_def_cfa_offset 24
	.cfi_offset 12, -24
	movq	%rsi, %r12
	pushq	%rbp
	.cfi_def_cfa_offset 32
	.cfi_offset 6, -32
	xorl	%ebp, %ebp
	pushq	%rbx
	.cfi_def_cfa_offset 40
	.cfi_offset 3, -40
	movq	%rdi, %rbx
	subq	$8, %rsp
	.cfi_def_cfa_offset 48
.L1527:
	cmpq	$0, 16(%rbx)
	je	.L1540
	movq	40(%rbx), %rdi
	call	*32(%rbx)
	testl	%eax, %eax
	je	.L1538
	movl	48(%rbx), %eax
	testl	%eax, %eax
	je	.L1526
.L1540:
	movq	192(%rbx), %rax
	cmpq	200(%rbx), %rax
	jnb	.L1526
	movsbl	(%r12), %edx
	leal	-48(%rdx), %ecx
	cmpb	$9, %cl
	jbe	.L1543
.L1526:
	addq	$8, %rsp
	.cfi_remember_state
	.cfi_def_cfa_offset 40
	movl	%ebp, %eax
	popq	%rbx
	.cfi_def_cfa_offset 32
	popq	%rbp
	.cfi_def_cfa_offset 24
	popq	%r12
	.cfi_def_cfa_offset 16
	popq	%r13
	.cfi_def_cfa_offset 8
	ret
	.p2align 4,,10
	.p2align 3
.L1543:
	.cfi_restore_state
	leal	0(%rbp,%rbp,4), %ecx
	leal	-48(%rdx,%rcx,2), %ebp
.L1542:
	leaq	1(%rax), %rdx
	movq	%rdx, 192(%rbx)
	movzbl	(%rax), %eax
.L1529:
	movb	%al, (%r12)
	cmpl	$214748364, %ebp
	jg	.L1535
	jne	.L1527
	cmpb	$55, %al
	jle	.L1527
.L1535:
	leaq	.LC63(%rip), %rax
	xorl	%ebp, %ebp
	movq	%rax, %fs:stbi__g_failure_reason@tpoff
	addq	$8, %rsp
	.cfi_remember_state
	.cfi_def_cfa_offset 40
	movl	%ebp, %eax
	popq	%rbx
	.cfi_def_cfa_offset 32
	popq	%rbp
	.cfi_def_cfa_offset 24
	popq	%r12
	.cfi_def_cfa_offset 16
	popq	%r13
	.cfi_def_cfa_offset 8
	ret
	.p2align 4,,10
	.p2align 3
.L1538:
	.cfi_restore_state
	movsbl	(%r12), %edx
	movl	%edx, %eax
	subl	$48, %eax
	cmpb	$9, %al
	ja	.L1526
	leal	0(%rbp,%rbp,4), %eax
	leal	-48(%rdx,%rax,2), %ebp
	movq	192(%rbx), %rax
	cmpq	200(%rbx), %rax
	jb	.L1542
	movl	48(%rbx), %edx
	testl	%edx, %edx
	jne	.L1530
	movb	$0, (%r12)
	cmpl	$214748364, %ebp
	jle	.L1527
	jmp	.L1535
	.p2align 4,,10
	.p2align 3
.L1530:
	leaq	56(%rbx), %r13
	movl	52(%rbx), %edx
	movq	40(%rbx), %rdi
	movq	%r13, %rsi
	call	*16(%rbx)
	movq	192(%rbx), %rdx
	subq	208(%rbx), %rdx
	addl	%edx, 184(%rbx)
	leaq	57(%rbx), %rdx
	testl	%eax, %eax
	je	.L1545
	cltq
	addq	%rax, %r13
	movzbl	56(%rbx), %eax
.L1534:
	movq	%r13, 200(%rbx)
	movq	%rdx, 192(%rbx)
	jmp	.L1529
	.p2align 4,,10
	.p2align 3
.L1545:
	movl	$0, 48(%rbx)
	movq	%rdx, %r13
	movb	$0, 56(%rbx)
	jmp	.L1534
	.cfi_endproc
.LFE746:
	.size	stbi__pnm_getinteger, .-stbi__pnm_getinteger
	.section	.rodata.str1.1
.LC64:
	.string	"#?RADIANCE\n"
.LC65:
	.string	"#?RGBE\n"
	.text
	.p2align 4
	.type	stbi__hdr_test, @function
stbi__hdr_test:
.LFB732:
	.cfi_startproc
	pushq	%r13
	.cfi_def_cfa_offset 16
	.cfi_offset 13, -16
	leaq	56(%rdi), %r13
	pushq	%r12
	.cfi_def_cfa_offset 24
	.cfi_offset 12, -24
	leaq	1+.LC64(%rip), %r12
	pushq	%rbp
	.cfi_def_cfa_offset 32
	.cfi_offset 6, -32
	movl	$35, %ebp
	pushq	%rbx
	.cfi_def_cfa_offset 40
	.cfi_offset 3, -40
	movq	%rdi, %rbx
	subq	$8, %rsp
	.cfi_def_cfa_offset 48
	movq	192(%rdi), %rdx
	movq	200(%rdi), %rax
	.p2align 4,,10
	.p2align 3
.L1551:
	cmpq	%rax, %rdx
	jb	.L1562
	movl	48(%rbx), %edx
	testl	%edx, %edx
	jne	.L1563
.L1549:
	movdqu	208(%rbx), %xmm0
	movq	216(%rbx), %rdx
	leaq	1+.LC65(%rip), %r12
	movl	$35, %ebp
	movq	208(%rbx), %rax
	movups	%xmm0, 192(%rbx)
.L1558:
	cmpq	%rdx, %rax
	jb	.L1564
	movl	48(%rbx), %eax
	testl	%eax, %eax
	jne	.L1565
.L1555:
	xorl	%eax, %eax
.L1557:
	movq	208(%rbx), %rdx
	movq	%rdx, 192(%rbx)
	movq	216(%rbx), %rdx
.L1552:
	movq	%rdx, 200(%rbx)
	addq	$8, %rsp
	.cfi_remember_state
	.cfi_def_cfa_offset 40
	popq	%rbx
	.cfi_def_cfa_offset 32
	popq	%rbp
	.cfi_def_cfa_offset 24
	popq	%r12
	.cfi_def_cfa_offset 16
	popq	%r13
	.cfi_def_cfa_offset 8
	ret
	.p2align 4,,10
	.p2align 3
.L1562:
	.cfi_restore_state
	leaq	1(%rdx), %rcx
	movq	%rcx, 192(%rbx)
	movzbl	(%rdx), %esi
	movq	%rcx, %rdx
.L1548:
	cmpl	%esi, %ebp
	jne	.L1549
	movsbl	(%r12), %ebp
	addq	$1, %r12
	testb	%bpl, %bpl
	jne	.L1551
	movq	208(%rbx), %rax
	movq	216(%rbx), %rdx
	movq	%rax, 192(%rbx)
	movl	$1, %eax
	jmp	.L1552
	.p2align 4,,10
	.p2align 3
.L1563:
	movl	52(%rbx), %edx
	movq	40(%rbx), %rdi
	movq	%r13, %rsi
	call	*16(%rbx)
	movq	192(%rbx), %rdx
	subq	208(%rbx), %rdx
	addl	%edx, 184(%rbx)
	leaq	57(%rbx), %rdx
	testl	%eax, %eax
	jne	.L1550
	movl	$0, 48(%rbx)
	movb	$0, 56(%rbx)
	movq	%rdx, 200(%rbx)
	movq	%rdx, 192(%rbx)
	jmp	.L1549
	.p2align 4,,10
	.p2align 3
.L1564:
	leaq	1(%rax), %rdx
	movq	%rdx, 192(%rbx)
	movzbl	(%rax), %edx
.L1554:
	cmpl	%edx, %ebp
	jne	.L1555
	movsbl	(%r12), %ebp
	addq	$1, %r12
	testb	%bpl, %bpl
	je	.L1559
	movq	192(%rbx), %rax
	movq	200(%rbx), %rdx
	jmp	.L1558
	.p2align 4,,10
	.p2align 3
.L1550:
	cltq
	movq	%rdx, 192(%rbx)
	movzbl	56(%rbx), %esi
	addq	%r13, %rax
	movq	%rax, 200(%rbx)
	jmp	.L1548
	.p2align 4,,10
	.p2align 3
.L1565:
	leaq	56(%rbx), %r13
	movl	52(%rbx), %edx
	movq	40(%rbx), %rdi
	movq	%r13, %rsi
	call	*16(%rbx)
	movq	192(%rbx), %rdx
	subq	208(%rbx), %rdx
	addl	%edx, 184(%rbx)
	testl	%eax, %eax
	jne	.L1556
	movl	$0, 48(%rbx)
	movb	$0, 56(%rbx)
	jmp	.L1555
	.p2align 4,,10
	.p2align 3
.L1556:
	cltq
	movzbl	56(%rbx), %edx
	addq	%rax, %r13
	leaq	57(%rbx), %rax
	movq	%r13, 200(%rbx)
	movq	%rax, 192(%rbx)
	jmp	.L1554
	.p2align 4,,10
	.p2align 3
.L1559:
	movl	$1, %eax
	jmp	.L1557
	.cfi_endproc
.LFE732:
	.size	stbi__hdr_test, .-stbi__hdr_test
	.section	.rodata.str1.1
.LC66:
	.string	"too large"
.LC67:
	.string	"not enough pixels"
.LC68:
	.string	"invalid filter"
.LC69:
	.string	"invalid width"
	.section	.rodata.str1.8
	.align 8
.LC70:
	.string	"out_n == s->img_n || out_n == s->img_n + 1"
	.section	.rodata.str1.1
.LC72:
	.string	"img_n + 1 == out_n"
.LC77:
	.string	"img_n == 3"
	.text
	.p2align 4
	.type	stbi__create_png_image_raw, @function
stbi__create_png_image_raw:
.LFB679:
	.cfi_startproc
	pushq	%r15
	.cfi_def_cfa_offset 16
	.cfi_offset 15, -16
	movl	%ecx, %eax
	pushq	%r14
	.cfi_def_cfa_offset 24
	.cfi_offset 14, -24
	pushq	%r13
	.cfi_def_cfa_offset 32
	.cfi_offset 13, -32
	pushq	%r12
	.cfi_def_cfa_offset 40
	.cfi_offset 12, -40
	pushq	%rbp
	.cfi_def_cfa_offset 48
	.cfi_offset 6, -48
	pushq	%rbx
	.cfi_def_cfa_offset 56
	.cfi_offset 3, -56
	movl	%edx, %ebx
	subq	$488, %rsp
	.cfi_def_cfa_offset 544
	cmpl	$16, 544(%rsp)
	movq	%rdi, 184(%rsp)
	movq	%rsi, 96(%rsp)
	movl	%ecx, 180(%rsp)
	movl	%r8d, 160(%rsp)
	movl	%r9d, 192(%rsp)
	je	.L2120
	movl	%ecx, %r14d
	movl	$1, %r12d
	movl	$1, %r15d
	movq	%rdi, %rax
.L1567:
	movq	(%rax), %rax
	movl	180(%rsp), %edi
	movl	8(%rax), %eax
	movl	%eax, 240(%rsp)
	cmpl	%eax, %edi
	je	.L1568
	addl	$1, %eax
	cmpl	%edi, %eax
	jne	.L2121
.L1568:
	movl	160(%rsp), %esi
	movl	192(%rsp), %eax
	movl	%esi, %edi
	orl	%eax, %edi
	js	.L1569
	movl	%esi, 200(%rsp)
	movl	%eax, %ecx
	testl	%eax, %eax
	je	.L2122
	movl	%eax, %edi
	xorl	%edx, %edx
	movl	$2147483647, %eax
	idivl	%ecx
	cmpl	%eax, %esi
	jg	.L1569
	testl	%r14d, %r14d
	js	.L1569
	imull	%esi, %edi
	movl	%edi, %ecx
	testl	%r14d, %r14d
	je	.L1571
	movl	$2147483647, %eax
	xorl	%edx, %edx
	idivl	%r14d
	cmpl	%eax, %edi
	jle	.L1571
	.p2align 4,,10
	.p2align 3
.L1569:
	movq	184(%rsp), %rax
	movq	$0, 24(%rax)
.L1572:
	leaq	.LC18(%rip), %rdx
	jmp	.L1574
	.p2align 4,,10
	.p2align 3
.L2122:
	testl	%r14d, %r14d
	js	.L1569
.L1571:
	imull	%r14d, %ecx
	movslq	%ecx, %rdi
	call	malloc@PLT
	movq	%rax, %rdi
	movq	184(%rsp), %rax
	movq	%rdi, 24(%rax)
	testq	%rdi, %rdi
	je	.L1572
	movl	240(%rsp), %eax
	testl	%eax, %eax
	js	.L1807
	movl	160(%rsp), %eax
	testl	%eax, %eax
	je	.L2123
	movl	160(%rsp), %esi
	movl	$2147483647, %eax
	xorl	%edx, %edx
	movl	240(%rsp), %ecx
	idivl	%esi
	cmpl	%eax, %ecx
	jg	.L1807
	movl	544(%rsp), %eax
	testl	%eax, %eax
	js	.L1807
	je	.L1576
	movl	$2147483647, %eax
	imull	%esi, %ecx
	xorl	%edx, %edx
	idivl	544(%rsp)
	leaq	.LC66(%rip), %rdx
	cmpl	%eax, %ecx
	jg	.L1574
	imull	544(%rsp), %ecx
	cmpl	$2147483640, %ecx
	jg	.L1574
.L1576:
	movl	160(%rsp), %esi
	movl	240(%rsp), %eax
	imull	%esi, %eax
	movl	192(%rsp), %esi
	movl	%eax, 464(%rsp)
	imull	544(%rsp), %eax
	addl	$7, %eax
	shrl	$3, %eax
	movl	%eax, 244(%rsp)
	addl	$1, %eax
	imull	%esi, %eax
	cmpl	%eax, %ebx
	jb	.L1810
	testl	%esi, %esi
	je	.L1791
	movl	180(%rsp), %eax
	movl	160(%rsp), %esi
	movl	$0, 144(%rsp)
	leaq	.L1585(%rip), %rbp
	movl	$0, 108(%rsp)
	movl	%eax, %ebx
	imull	%esi, %ebx
	imull	%ebx, %r12d
	movl	%ebx, 248(%rsp)
	movl	240(%rsp), %ebx
	imull	%ebx, %r15d
	cmpl	$7, 544(%rsp)
	setle	%dl
	cmpl	%ebx, %eax
	movl	%r12d, 176(%rsp)
	sete	%al
	orl	%eax, %edx
	leal	1(%rbx), %eax
	movl	%r15d, 8(%rsp)
	movb	%dl, 208(%rsp)
	movl	%eax, 252(%rsp)
	.p2align 4,,10
	.p2align 3
.L1755:
	movq	96(%rsp), %rax
	movl	144(%rsp), %r15d
	movzbl	(%rax), %edx
	addq	%r15, %rdi
	leaq	1(%rax), %r11
	cmpl	$4, %edx
	jg	.L1811
	cmpl	$7, 544(%rsp)
	jg	.L1579
	movl	244(%rsp), %ebx
	cmpl	%ebx, 160(%rsp)
	jb	.L1812
	movl	248(%rsp), %eax
	movl	176(%rsp), %ecx
	movl	%ebx, 200(%rsp)
	movl	108(%rsp), %r13d
	movl	$1, 8(%rsp)
	subl	%ebx, %eax
	addq	%rax, %rdi
	movq	%rdi, %rax
	subq	%rcx, %rax
	testl	%r13d, %r13d
	jne	.L1580
	leaq	first_row_filter(%rip), %rbx
	movzbl	(%rbx,%rdx), %edx
.L1580:
	movl	8(%rsp), %ebx
	movq	%r11, %r9
	movq	%rdi, %r8
	xorl	%esi, %esi
	movl	%edx, %r10d
	.p2align 4,,10
	.p2align 3
.L1592:
	cmpl	$6, %edx
	ja	.L1583
	movslq	0(%rbp,%r10,4), %rcx
	addq	%rbp, %rcx
	jmp	*%rcx
	.section	.rodata
	.align 4
	.align 4
.L1585:
	.long	.L1584-.L1585
	.long	.L1584-.L1585
	.long	.L1587-.L1585
	.long	.L1588-.L1585
	.long	.L1587-.L1585
	.long	.L1584-.L1585
	.long	.L1584-.L1585
	.text
.L2123:
	movl	544(%rsp), %eax
	testl	%eax, %eax
	jns	.L1576
	.p2align 4,,10
	.p2align 3
.L1807:
	leaq	.LC66(%rip), %rdx
.L1574:
	movq	%rdx, %fs:stbi__g_failure_reason@tpoff
	xorl	%eax, %eax
.L1566:
	addq	$488, %rsp
	.cfi_remember_state
	.cfi_def_cfa_offset 56
	popq	%rbx
	.cfi_def_cfa_offset 48
	popq	%rbp
	.cfi_def_cfa_offset 40
	popq	%r12
	.cfi_def_cfa_offset 32
	popq	%r13
	.cfi_def_cfa_offset 24
	popq	%r14
	.cfi_def_cfa_offset 16
	popq	%r15
	.cfi_def_cfa_offset 8
	ret
.L2120:
	.cfi_restore_state
	addl	%eax, %eax
	movl	$2, %r12d
	movl	$2, %r15d
	movl	%eax, %r14d
	movq	%rdi, %rax
	jmp	.L1567
	.p2align 4,,10
	.p2align 3
.L1584:
	movzbl	(%r9), %ecx
	movb	%cl, (%r8)
.L1583:
	addq	$1, %rsi
	addq	$1, %r9
	addq	$1, %r8
	cmpl	%esi, %ebx
	jg	.L1592
	cmpl	$8, 544(%rsp)
	je	.L2124
.L1593:
	cmpl	$16, 544(%rsp)
	je	.L2125
	addq	$2, 96(%rsp)
	addq	$1, %rdi
	addq	$1, %rax
.L1595:
	cmpb	$0, 208(%rsp)
	je	.L1598
.L2126:
	movl	200(%rsp), %ebx
	movl	8(%rsp), %r15d
	leal	-1(%rbx), %ecx
	imull	%ecx, %r15d
	movslq	%r15d, %r13
	cmpl	$6, %edx
	ja	.L1599
	leaq	.L1601(%rip), %rcx
	movl	%edx, %edx
	movslq	(%rcx,%rdx,4), %rdx
	addq	%rcx, %rdx
	jmp	*%rdx
	.section	.rodata
	.align 4
	.align 4
.L1601:
	.long	.L1607-.L1601
	.long	.L1606-.L1601
	.long	.L1605-.L1601
	.long	.L1604-.L1601
	.long	.L1603-.L1601
	.long	.L1602-.L1601
	.long	.L1600-.L1601
	.text
	.p2align 4,,10
	.p2align 3
.L1587:
	movzbl	(%rax,%rsi), %ecx
	addb	(%r9), %cl
	movb	%cl, (%r8)
	jmp	.L1583
	.p2align 4,,10
	.p2align 3
.L1588:
	movzbl	(%rax,%rsi), %ecx
	shrb	%cl
	addb	(%r9), %cl
	movb	%cl, (%r8)
	jmp	.L1583
.L1602:
	testl	%r15d, %r15d
	jle	.L1599
	leal	-1(%r15), %eax
	cmpl	$14, %eax
	jbe	.L1827
	movl	8(%rsp), %edx
	negl	%edx
	movslq	%edx, %rdx
	movq	%rdx, %rax
	notq	%rax
	cmpq	$14, %rax
	jbe	.L1827
	movq	96(%rsp), %rsi
	movq	%rdi, %rax
	leaq	1(%rsi), %rcx
	subq	%rcx, %rax
	cmpq	$14, %rax
	jbe	.L1827
	movl	%r15d, %ecx
	movdqa	.LC15(%rip), %xmm3
	addq	%rdi, %rdx
	xorl	%eax, %eax
	shrl	$4, %ecx
	salq	$4, %rcx
	.p2align 4,,10
	.p2align 3
.L1649:
	movdqu	(%rdx,%rax), %xmm0
	movdqu	(%rsi,%rax), %xmm5
	psrlw	$1, %xmm0
	pand	%xmm3, %xmm0
	paddb	%xmm5, %xmm0
	movups	%xmm0, (%rdi,%rax)
	addq	$16, %rax
	cmpq	%rax, %rcx
	jne	.L1649
	movl	%r15d, %ecx
	andl	$-16, %ecx
	testb	$15, %r15b
	je	.L1599
	movl	8(%rsp), %ebx
	movl	%ecx, %eax
	movq	96(%rsp), %rsi
	movl	%ecx, %edx
	subl	%ebx, %eax
	cltq
	movzbl	(%rdi,%rax), %eax
	shrb	%al
	addb	(%rsi,%rdx), %al
	movb	%al, (%rdi,%rdx)
	leal	1(%rcx), %eax
	cmpl	%eax, %r15d
	jle	.L1599
	movslq	%eax, %rdx
	subl	%ebx, %eax
	cltq
	movzbl	(%rdi,%rax), %eax
	shrb	%al
	addb	(%rsi,%rdx), %al
	movb	%al, (%rdi,%rdx)
	leal	2(%rcx), %eax
	cmpl	%eax, %r15d
	jle	.L1599
	movslq	%eax, %rdx
	subl	%ebx, %eax
	cltq
	movzbl	(%rdi,%rax), %eax
	shrb	%al
	addb	(%rsi,%rdx), %al
	movb	%al, (%rdi,%rdx)
	leal	3(%rcx), %eax
	cmpl	%eax, %r15d
	jle	.L1599
	movslq	%eax, %rdx
	subl	%ebx, %eax
	cltq
	movzbl	(%rdi,%rax), %eax
	shrb	%al
	addb	(%rsi,%rdx), %al
	movb	%al, (%rdi,%rdx)
	leal	4(%rcx), %eax
	cmpl	%eax, %r15d
	jle	.L1599
	movslq	%eax, %rdx
	subl	%ebx, %eax
	cltq
	movzbl	(%rdi,%rax), %eax
	shrb	%al
	addb	(%rsi,%rdx), %al
	movb	%al, (%rdi,%rdx)
	leal	5(%rcx), %eax
	cmpl	%eax, %r15d
	jle	.L1599
	movslq	%eax, %rdx
	subl	%ebx, %eax
	cltq
	movzbl	(%rdi,%rax), %eax
	shrb	%al
	addb	(%rsi,%rdx), %al
	movb	%al, (%rdi,%rdx)
	leal	6(%rcx), %eax
	cmpl	%r15d, %eax
	jge	.L1599
	movslq	%eax, %rdx
	subl	%ebx, %eax
	cltq
	movzbl	(%rdi,%rax), %eax
	shrb	%al
	addb	(%rsi,%rdx), %al
	movb	%al, (%rdi,%rdx)
	leal	7(%rcx), %eax
	cmpl	%eax, %r15d
	jle	.L1599
	movslq	%eax, %rdx
	subl	%ebx, %eax
	cltq
	movzbl	(%rdi,%rax), %eax
	shrb	%al
	addb	(%rsi,%rdx), %al
	movb	%al, (%rdi,%rdx)
	leal	8(%rcx), %eax
	cmpl	%eax, %r15d
	jle	.L1599
	movslq	%eax, %rdx
	subl	%ebx, %eax
	cltq
	movzbl	(%rdi,%rax), %eax
	shrb	%al
	addb	(%rsi,%rdx), %al
	movb	%al, (%rdi,%rdx)
	leal	9(%rcx), %eax
	cmpl	%eax, %r15d
	jle	.L1599
	movslq	%eax, %rdx
	subl	%ebx, %eax
	cltq
	movzbl	(%rdi,%rax), %eax
	shrb	%al
	addb	(%rsi,%rdx), %al
	movb	%al, (%rdi,%rdx)
	leal	10(%rcx), %eax
	cmpl	%eax, %r15d
	jle	.L1599
	movslq	%eax, %rdx
	subl	%ebx, %eax
	cltq
	movzbl	(%rdi,%rax), %eax
	shrb	%al
	addb	(%rsi,%rdx), %al
	movb	%al, (%rdi,%rdx)
	leal	11(%rcx), %eax
	cmpl	%eax, %r15d
	jle	.L1599
	movslq	%eax, %rdx
	subl	%ebx, %eax
	cltq
	movzbl	(%rdi,%rax), %eax
	shrb	%al
	addb	(%rsi,%rdx), %al
	movb	%al, (%rdi,%rdx)
	leal	12(%rcx), %eax
	cmpl	%eax, %r15d
	jle	.L1599
	movslq	%eax, %rdx
	subl	%ebx, %eax
	cltq
	movzbl	(%rdi,%rax), %eax
	shrb	%al
	addb	(%rsi,%rdx), %al
	movb	%al, (%rdi,%rdx)
	leal	13(%rcx), %eax
	cmpl	%eax, %r15d
	jle	.L1599
	movslq	%eax, %rdx
	subl	%ebx, %eax
	cltq
	movzbl	(%rdi,%rax), %eax
	shrb	%al
	addb	(%rsi,%rdx), %al
	movb	%al, (%rdi,%rdx)
	leal	14(%rcx), %eax
	cmpl	%eax, %r15d
	jle	.L1599
	movslq	%eax, %rdx
	subl	%ebx, %eax
	cltq
	movzbl	(%rdi,%rax), %eax
	shrb	%al
	addb	(%rsi,%rdx), %al
	movb	%al, (%rdi,%rdx)
	jmp	.L1599
	.p2align 4,,10
	.p2align 3
.L1603:
	testl	%r15d, %r15d
	jle	.L1599
	leal	-1(%r15), %edx
	cmpl	$14, %edx
	jbe	.L1823
	movl	8(%rsp), %edx
	movq	96(%rsp), %rbx
	movq	%rdi, %rsi
	negl	%edx
	leaq	1(%rbx), %r9
	movslq	%edx, %rdx
	leaq	1(%rdx), %rcx
	leaq	(%rax,%rcx), %r8
	subq	%r8, %rsi
	movq	%rdi, %r8
	cmpq	$14, %rsi
	seta	%sil
	subq	%r9, %r8
	cmpq	$14, %r8
	seta	%r8b
	negq	%rcx
	andl	%esi, %r8d
	cmpq	$14, %rcx
	seta	%cl
	testb	%cl, %r8b
	je	.L1823
	leaq	1(%rax), %rsi
	movq	%rdi, %rcx
	subq	%rsi, %rcx
	cmpq	$14, %rcx
	jbe	.L1823
	leaq	(%rax,%rdx), %rsi
	leaq	(%rdi,%rdx), %r8
	movl	%r15d, %edx
	movq	%rbx, %r9
	shrl	$4, %edx
	movq	%rsi, 80(%rsp)
	movq	%r8, %r11
	pxor	%xmm14, %xmm14
	salq	$4, %rdx
	movdqa	.LC2(%rip), %xmm4
	pxor	%xmm13, %xmm13
	movq	%rdx, %rcx
	xorl	%edx, %edx
.L1640:
	movdqu	(%rsi,%rdx), %xmm0
	pxor	%xmm5, %xmm5
	movdqu	(%rsi,%rdx), %xmm1
	movdqu	(%r8,%rdx), %xmm8
	movdqa	%xmm5, %xmm3
	movdqu	(%r8,%rdx), %xmm7
	punpckhbw	%xmm5, %xmm0
	punpcklbw	%xmm5, %xmm1
	movdqa	%xmm0, %xmm6
	punpcklbw	%xmm3, %xmm8
	movdqa	%xmm1, %xmm2
	punpckhwd	%xmm14, %xmm6
	movdqa	%xmm8, %xmm15
	punpckhbw	%xmm3, %xmm7
	movaps	%xmm6, 64(%rsp)
	movdqu	(%rax,%rdx), %xmm6
	punpcklwd	%xmm14, %xmm15
	punpcklwd	%xmm14, %xmm2
	movaps	%xmm2, 16(%rsp)
	movdqa	%xmm0, %xmm9
	punpckhwd	%xmm14, %xmm8
	punpckhwd	%xmm14, %xmm1
	punpcklbw	%xmm5, %xmm6
	movdqu	(%rax,%rdx), %xmm5
	punpcklwd	%xmm14, %xmm9
	movdqa	%xmm8, %xmm2
	movdqa	%xmm6, %xmm11
	movaps	%xmm9, 48(%rsp)
	punpckhwd	%xmm14, %xmm6
	movdqa	%xmm7, %xmm12
	punpckhbw	%xmm3, %xmm5
	punpcklwd	%xmm14, %xmm11
	movdqa	%xmm15, %xmm3
	movaps	%xmm1, 32(%rsp)
	paddd	%xmm11, %xmm3
	psubd	16(%rsp), %xmm3
	punpcklwd	%xmm14, %xmm12
	paddd	%xmm6, %xmm2
	psubd	32(%rsp), %xmm2
	movdqa	%xmm5, %xmm10
	movdqa	%xmm3, %xmm9
	punpcklwd	%xmm14, %xmm10
	movdqa	%xmm12, %xmm1
	psubd	%xmm15, %xmm9
	paddd	%xmm10, %xmm1
	punpckhwd	%xmm14, %xmm7
	movdqa	%xmm9, %xmm15
	psubd	48(%rsp), %xmm1
	punpckhwd	%xmm14, %xmm5
	psrad	$31, %xmm15
	movdqa	%xmm7, %xmm0
	pxor	%xmm15, %xmm9
	paddd	%xmm5, %xmm0
	psubd	64(%rsp), %xmm0
	psubd	%xmm15, %xmm9
	movdqa	%xmm2, %xmm15
	psubd	%xmm8, %xmm15
	movaps	%xmm9, 112(%rsp)
	movdqa	%xmm15, %xmm8
	movdqa	%xmm15, %xmm9
	psrad	$31, %xmm8
	pxor	%xmm8, %xmm9
	movdqa	%xmm9, %xmm15
	psubd	%xmm8, %xmm15
	movdqa	%xmm1, %xmm8
	movaps	%xmm15, 128(%rsp)
	psubd	%xmm12, %xmm8
	movdqa	%xmm8, %xmm12
	psrad	$31, %xmm12
	pxor	%xmm12, %xmm8
	movdqa	%xmm12, %xmm9
	movdqa	%xmm8, %xmm12
	movdqa	%xmm0, %xmm8
	psubd	%xmm7, %xmm8
	psubd	%xmm9, %xmm12
	movdqa	%xmm8, %xmm7
	psrad	$31, %xmm7
	pxor	%xmm7, %xmm8
	psubd	%xmm7, %xmm8
	movdqa	%xmm3, %xmm7
	psubd	16(%rsp), %xmm3
	psubd	%xmm11, %xmm7
	movdqa	%xmm8, %xmm15
	movdqa	%xmm7, %xmm8
	psrad	$31, %xmm8
	pxor	%xmm8, %xmm7
	psubd	%xmm8, %xmm7
	movdqa	%xmm2, %xmm8
	psubd	32(%rsp), %xmm2
	psubd	%xmm6, %xmm8
	movdqa	%xmm8, %xmm6
	psrad	$31, %xmm6
	pxor	%xmm6, %xmm8
	psubd	%xmm6, %xmm8
	movdqa	%xmm1, %xmm6
	psubd	48(%rsp), %xmm1
	psubd	%xmm10, %xmm6
	movdqa	%xmm6, %xmm11
	psrad	$31, %xmm11
	pxor	%xmm11, %xmm6
	psubd	%xmm11, %xmm6
	movdqa	%xmm0, %xmm11
	psubd	64(%rsp), %xmm0
	psubd	%xmm5, %xmm11
	movdqa	%xmm11, %xmm5
	movdqa	%xmm11, %xmm9
	psrad	$31, %xmm5
	pxor	%xmm5, %xmm9
	psubd	%xmm5, %xmm9
	movdqa	%xmm3, %xmm5
	psrad	$31, %xmm5
	pxor	%xmm5, %xmm3
	psubd	%xmm5, %xmm3
	movdqa	%xmm2, %xmm5
	psrad	$31, %xmm5
	pxor	%xmm5, %xmm2
	psubd	%xmm5, %xmm2
	movdqa	%xmm1, %xmm5
	psrad	$31, %xmm5
	pxor	%xmm5, %xmm1
	psubd	%xmm5, %xmm1
	movdqa	%xmm0, %xmm5
	psrad	$31, %xmm5
	pxor	%xmm5, %xmm0
	psubd	%xmm5, %xmm0
	movdqa	%xmm7, %xmm5
	pcmpgtd	%xmm3, %xmm5
	movdqa	%xmm5, %xmm10
	pand	%xmm5, %xmm3
	pandn	%xmm7, %xmm10
	por	%xmm10, %xmm3
	movdqa	%xmm8, %xmm10
	pcmpgtd	%xmm2, %xmm10
	movdqa	%xmm10, %xmm7
	pand	%xmm10, %xmm2
	pandn	%xmm8, %xmm7
	por	%xmm7, %xmm2
	movdqa	%xmm6, %xmm7
	pcmpgtd	%xmm1, %xmm7
	movdqa	%xmm7, %xmm8
	pand	%xmm7, %xmm1
	pandn	%xmm6, %xmm8
	movdqa	%xmm9, %xmm6
	pcmpgtd	%xmm0, %xmm6
	por	%xmm8, %xmm1
	movdqa	%xmm6, %xmm8
	pand	%xmm6, %xmm0
	movdqa	%xmm6, %xmm11
	pandn	%xmm9, %xmm8
	pcmpeqd	%xmm13, %xmm11
	por	%xmm0, %xmm8
	movdqa	112(%rsp), %xmm0
	pcmpgtd	%xmm8, %xmm15
	movdqa	%xmm7, %xmm8
	pcmpgtd	%xmm3, %xmm0
	pcmpeqd	%xmm13, %xmm8
	movdqa	128(%rsp), %xmm3
	pcmpgtd	%xmm2, %xmm3
	movdqa	%xmm12, %xmm2
	movdqa	%xmm10, %xmm12
	pcmpgtd	%xmm1, %xmm2
	movdqa	%xmm5, %xmm1
	pand	%xmm0, %xmm5
	pcmpeqd	%xmm13, %xmm1
	pcmpeqd	%xmm13, %xmm12
	movdqa	%xmm15, %xmm9
	pand	%xmm3, %xmm10
	pcmpeqd	%xmm13, %xmm9
	pand	%xmm15, %xmm11
	pand	%xmm2, %xmm8
	pand	%xmm2, %xmm7
	pand	%xmm15, %xmm6
	pand	%xmm0, %xmm1
	pcmpeqd	%xmm13, %xmm0
	pand	%xmm3, %xmm12
	pcmpeqd	%xmm13, %xmm3
	pcmpeqd	%xmm13, %xmm2
	movdqa	%xmm0, %xmm15
	punpcklwd	%xmm3, %xmm0
	punpckhwd	%xmm3, %xmm15
	movdqa	%xmm0, %xmm3
	punpcklwd	%xmm15, %xmm0
	punpckhwd	%xmm15, %xmm3
	punpcklwd	%xmm3, %xmm0
	movdqa	%xmm2, %xmm3
	punpcklwd	%xmm9, %xmm2
	punpckhwd	%xmm9, %xmm3
	movdqa	%xmm2, %xmm9
	pand	%xmm4, %xmm0
	punpckhwd	%xmm3, %xmm9
	punpcklwd	%xmm3, %xmm2
	movdqu	(%rsi,%rdx), %xmm3
	punpcklwd	%xmm9, %xmm2
	pand	%xmm4, %xmm2
	packuswb	%xmm2, %xmm0
	movdqu	(%r8,%rdx), %xmm2
	pand	%xmm0, %xmm2
	pandn	%xmm3, %xmm0
	por	%xmm2, %xmm0
	movdqa	%xmm5, %xmm2
	punpcklwd	%xmm10, %xmm5
	punpckhwd	%xmm10, %xmm2
	movdqa	%xmm5, %xmm3
	punpckhwd	%xmm2, %xmm3
	punpcklwd	%xmm2, %xmm5
	movdqa	%xmm7, %xmm2
	punpcklwd	%xmm6, %xmm7
	punpckhwd	%xmm6, %xmm2
	punpcklwd	%xmm3, %xmm5
	movdqa	%xmm7, %xmm3
	punpcklwd	%xmm2, %xmm7
	pand	%xmm4, %xmm5
	punpckhwd	%xmm2, %xmm3
	movdqu	(%rsi,%rdx), %xmm2
	punpcklwd	%xmm3, %xmm7
	pand	%xmm4, %xmm7
	packuswb	%xmm7, %xmm5
	pand	%xmm5, %xmm2
	pandn	%xmm0, %xmm5
	movdqa	%xmm1, %xmm0
	punpcklwd	%xmm12, %xmm1
	punpckhwd	%xmm12, %xmm0
	por	%xmm2, %xmm5
	movdqa	%xmm1, %xmm2
	punpcklwd	%xmm0, %xmm1
	punpckhwd	%xmm0, %xmm2
	movdqa	%xmm8, %xmm0
	punpcklwd	%xmm11, %xmm8
	punpckhwd	%xmm11, %xmm0
	punpcklwd	%xmm2, %xmm1
	movdqa	%xmm8, %xmm2
	punpckhwd	%xmm0, %xmm2
	punpcklwd	%xmm0, %xmm8
	pand	%xmm4, %xmm1
	movdqu	(%rax,%rdx), %xmm0
	punpcklwd	%xmm2, %xmm8
	pand	%xmm4, %xmm8
	packuswb	%xmm8, %xmm1
	pand	%xmm1, %xmm0
	pandn	%xmm5, %xmm1
	por	%xmm0, %xmm1
	movdqu	(%r9,%rdx), %xmm0
	paddb	%xmm1, %xmm0
	movups	%xmm0, (%rdi,%rdx)
	addq	$16, %rdx
	cmpq	%rdx, %rcx
	jne	.L1640
	movl	%r15d, %ecx
	andl	$-16, %ecx
	testb	$15, %r15b
	je	.L1599
	movq	%r13, 32(%rsp)
	movl	%r14d, 16(%rsp)
	movq	%r11, %r14
	.p2align 4,,10
	.p2align 3
.L1644:
	movq	96(%rsp), %rbx
	movzbl	(%rax,%rcx), %r9d
	movzbl	(%r14,%rcx), %r11d
	movzbl	(%rbx,%rcx), %r13d
	movq	80(%rsp), %rbx
	movl	%r9d, %r12d
	leal	(%r9,%r11), %edx
	movl	%r11d, %esi
	movzbl	(%rbx,%rcx), %r8d
	subl	%r8d, %edx
	movl	%r8d, %ebx
	movl	%edx, %r10d
	subl	%r9d, %r10d
	movl	%r10d, %r9d
	negl	%r9d
	cmovs	%r10d, %r9d
	movl	%edx, %r10d
	subl	%r8d, %r10d
	movl	%r10d, %r8d
	negl	%r8d
	cmovs	%r10d, %r8d
	subl	%r11d, %edx
	movl	%edx, %r10d
	negl	%r10d
	cmovns	%r10d, %edx
	cmpl	%r8d, %r9d
	movl	%r8d, %r10d
	cmovle	%r9d, %r10d
	cmpl	%r10d, %edx
	jle	.L1645
	cmpl	%r8d, %r9d
	cmovle	%r12d, %ebx
	movl	%ebx, %esi
.L1645:
	addl	%r13d, %esi
	movb	%sil, (%rdi,%rcx)
	addq	$1, %rcx
	cmpl	%ecx, %r15d
	jg	.L1644
	movl	16(%rsp), %r14d
	movq	32(%rsp), %r13
	jmp	.L1599
.L1604:
	testl	%r15d, %r15d
	jle	.L1599
	leal	-1(%r15), %edx
	cmpl	$14, %edx
	jbe	.L1821
	movq	96(%rsp), %rbx
	movl	8(%rsp), %edx
	movq	%rdi, %rcx
	leaq	1(%rax), %r8
	leaq	1(%rbx), %rsi
	negl	%edx
	subq	%rsi, %rcx
	movq	%rdi, %rsi
	movslq	%edx, %rdx
	cmpq	$14, %rcx
	seta	%cl
	subq	%r8, %rsi
	cmpq	$14, %rsi
	seta	%sil
	testb	%sil, %cl
	je	.L1821
	movq	%rdx, %rcx
	notq	%rcx
	cmpq	$14, %rcx
	jbe	.L1821
	movl	%r15d, %esi
	movdqa	.LC14(%rip), %xmm4
	addq	%rdi, %rdx
	xorl	%ecx, %ecx
	shrl	$4, %esi
	movdqa	.LC15(%rip), %xmm3
	movq	%rbx, %r8
	salq	$4, %rsi
	.p2align 4,,10
	.p2align 3
.L1634:
	movdqu	(%rax,%rcx), %xmm0
	movdqu	(%rdx,%rcx), %xmm5
	movdqu	(%r8,%rcx), %xmm1
	movdqu	(%rdx,%rcx), %xmm2
	pand	%xmm5, %xmm0
	pand	%xmm4, %xmm0
	psrlw	$1, %xmm2
	paddb	%xmm0, %xmm1
	movdqu	(%rax,%rcx), %xmm0
	pand	%xmm3, %xmm2
	psrlw	$1, %xmm0
	pand	%xmm3, %xmm0
	paddb	%xmm2, %xmm0
	paddb	%xmm1, %xmm0
	movups	%xmm0, (%rdi,%rcx)
	addq	$16, %rcx
	cmpq	%rcx, %rsi
	jne	.L1634
	movl	%r15d, %r8d
	andl	$-16, %r8d
	testb	$15, %r15b
	je	.L1599
	movl	8(%rsp), %ebx
	movl	%r8d, %edx
	movl	%r8d, %ecx
	movq	96(%rsp), %r11
	movzbl	(%rax,%rcx), %esi
	subl	%ebx, %edx
	movslq	%edx, %rdx
	movzbl	(%rdi,%rdx), %edx
	addl	%esi, %edx
	sarl	%edx
	addb	(%r11,%rcx), %dl
	movb	%dl, (%rdi,%rcx)
	leal	1(%r8), %edx
	cmpl	%edx, %r15d
	jle	.L1599
	movslq	%edx, %rcx
	subl	%ebx, %edx
	movslq	%edx, %rdx
	movzbl	(%rax,%rcx), %esi
	movzbl	(%rdi,%rdx), %edx
	addl	%esi, %edx
	sarl	%edx
	addb	(%r11,%rcx), %dl
	movb	%dl, (%rdi,%rcx)
	leal	2(%r8), %edx
	cmpl	%edx, %r15d
	jle	.L1599
	movslq	%edx, %rcx
	subl	%ebx, %edx
	movslq	%edx, %rdx
	movzbl	(%rax,%rcx), %esi
	movzbl	(%rdi,%rdx), %edx
	addl	%esi, %edx
	sarl	%edx
	addb	(%r11,%rcx), %dl
	movb	%dl, (%rdi,%rcx)
	leal	3(%r8), %edx
	cmpl	%edx, %r15d
	jle	.L1599
	movslq	%edx, %rcx
	subl	%ebx, %edx
	movslq	%edx, %rdx
	movzbl	(%rax,%rcx), %esi
	movzbl	(%rdi,%rdx), %edx
	addl	%esi, %edx
	sarl	%edx
	addb	(%r11,%rcx), %dl
	movb	%dl, (%rdi,%rcx)
	leal	4(%r8), %edx
	cmpl	%edx, %r15d
	jle	.L1599
	movslq	%edx, %rcx
	subl	%ebx, %edx
	movslq	%edx, %rdx
	movzbl	(%rax,%rcx), %esi
	movzbl	(%rdi,%rdx), %edx
	addl	%esi, %edx
	sarl	%edx
	addb	(%r11,%rcx), %dl
	movb	%dl, (%rdi,%rcx)
	leal	5(%r8), %edx
	cmpl	%edx, %r15d
	jle	.L1599
	movslq	%edx, %rcx
	subl	%ebx, %edx
	movslq	%edx, %rdx
	movzbl	(%rax,%rcx), %esi
	movzbl	(%rdi,%rdx), %edx
	addl	%esi, %edx
	sarl	%edx
	addb	(%r11,%rcx), %dl
	movb	%dl, (%rdi,%rcx)
	leal	6(%r8), %edx
	cmpl	%edx, %r15d
	jle	.L1599
	movslq	%edx, %rcx
	subl	%ebx, %edx
	movslq	%edx, %rdx
	movzbl	(%rax,%rcx), %esi
	movzbl	(%rdi,%rdx), %edx
	addl	%esi, %edx
	sarl	%edx
	addb	(%r11,%rcx), %dl
	movb	%dl, (%rdi,%rcx)
	leal	7(%r8), %edx
	cmpl	%r15d, %edx
	jge	.L1599
	movslq	%edx, %rcx
	subl	%ebx, %edx
	movslq	%edx, %rdx
	movzbl	(%rax,%rcx), %esi
	movzbl	(%rdi,%rdx), %edx
	addl	%esi, %edx
	sarl	%edx
	addb	(%r11,%rcx), %dl
	movb	%dl, (%rdi,%rcx)
	leal	8(%r8), %edx
	cmpl	%r15d, %edx
	jge	.L1599
	movslq	%edx, %rcx
	subl	%ebx, %edx
	movslq	%edx, %rdx
	movzbl	(%rax,%rcx), %esi
	movzbl	(%rdi,%rdx), %edx
	addl	%esi, %edx
	sarl	%edx
	addb	(%r11,%rcx), %dl
	movb	%dl, (%rdi,%rcx)
	leal	9(%r8), %edx
	cmpl	%edx, %r15d
	jle	.L1599
	movslq	%edx, %rcx
	subl	%ebx, %edx
	movslq	%edx, %rdx
	movzbl	(%rax,%rcx), %esi
	movzbl	(%rdi,%rdx), %edx
	addl	%esi, %edx
	sarl	%edx
	addb	(%r11,%rcx), %dl
	movb	%dl, (%rdi,%rcx)
	leal	10(%r8), %edx
	cmpl	%r15d, %edx
	jge	.L1599
	movslq	%edx, %rcx
	subl	%ebx, %edx
	movslq	%edx, %rdx
	movzbl	(%rax,%rcx), %esi
	movzbl	(%rdi,%rdx), %edx
	addl	%esi, %edx
	sarl	%edx
	addb	(%r11,%rcx), %dl
	movb	%dl, (%rdi,%rcx)
	leal	11(%r8), %edx
	cmpl	%edx, %r15d
	jle	.L1599
	movslq	%edx, %rcx
	subl	%ebx, %edx
	movslq	%edx, %rdx
	movzbl	(%rax,%rcx), %esi
	movzbl	(%rdi,%rdx), %edx
	addl	%esi, %edx
	sarl	%edx
	addb	(%r11,%rcx), %dl
	movb	%dl, (%rdi,%rcx)
	leal	12(%r8), %edx
	cmpl	%edx, %r15d
	jle	.L1599
	movslq	%edx, %rcx
	subl	%ebx, %edx
	movslq	%edx, %rdx
	movzbl	(%rax,%rcx), %esi
	movzbl	(%rdi,%rdx), %edx
	addl	%esi, %edx
	sarl	%edx
	addb	(%r11,%rcx), %dl
	movb	%dl, (%rdi,%rcx)
	leal	13(%r8), %edx
	cmpl	%edx, %r15d
	jle	.L1599
	movslq	%edx, %rcx
	subl	%ebx, %edx
	movslq	%edx, %rdx
	movzbl	(%rax,%rcx), %esi
	movzbl	(%rdi,%rdx), %edx
	addl	%esi, %edx
	sarl	%edx
	addb	(%r11,%rcx), %dl
	movb	%dl, (%rdi,%rcx)
	leal	14(%r8), %edx
	cmpl	%edx, %r15d
	jle	.L1599
	movslq	%edx, %rcx
	subl	%ebx, %edx
	movslq	%edx, %rdx
	movzbl	(%rax,%rcx), %eax
	movzbl	(%rdi,%rdx), %edx
	addl	%edx, %eax
	sarl	%eax
	addb	(%r11,%rcx), %al
	movb	%al, (%rdi,%rcx)
	jmp	.L1599
	.p2align 4,,10
	.p2align 3
.L1605:
	testl	%r15d, %r15d
	jle	.L1599
	leal	-1(%r15), %edx
	movl	%r15d, %esi
	cmpl	$6, %edx
	jbe	.L1818
	movq	96(%rsp), %rbx
	movq	%rdi, %rcx
	leaq	1(%rbx), %r8
	subq	%r8, %rcx
	cmpq	$14, %rcx
	jbe	.L1818
	leaq	1(%rax), %r8
	movq	%rdi, %rcx
	subq	%r8, %rcx
	cmpq	$14, %rcx
	jbe	.L1818
	cmpl	$14, %edx
	jbe	.L1819
	movl	%r15d, %ecx
	xorl	%edx, %edx
	movq	%rbx, %rsi
	shrl	$4, %ecx
	salq	$4, %rcx
	.p2align 4,,10
	.p2align 3
.L1626:
	movdqu	(%rsi,%rdx), %xmm0
	movdqu	(%rax,%rdx), %xmm5
	paddb	%xmm5, %xmm0
	movups	%xmm0, (%rdi,%rdx)
	addq	$16, %rdx
	cmpq	%rdx, %rcx
	jne	.L1626
	movl	%r15d, %edx
	andl	$-16, %edx
	movl	%edx, %ecx
	cmpl	%edx, %r15d
	je	.L1599
	movl	%r15d, %esi
	subl	%edx, %esi
	leal	-1(%rsi), %r8d
	cmpl	$6, %r8d
	jbe	.L1629
.L1625:
	movq	96(%rsp), %rbx
	movq	(%rax,%rcx), %xmm1
	movq	(%rbx,%rcx), %xmm0
	paddb	%xmm1, %xmm0
	movq	%xmm0, (%rdi,%rcx)
	movl	%esi, %ecx
	andl	$-8, %ecx
	addl	%ecx, %edx
	andl	$7, %esi
	je	.L1599
.L1629:
	movq	96(%rsp), %rbx
	movslq	%edx, %rcx
	movzbl	(%rax,%rcx), %esi
	addb	(%rbx,%rcx), %sil
	movb	%sil, (%rdi,%rcx)
	leal	1(%rdx), %ecx
	cmpl	%ecx, %r15d
	jle	.L1599
	movslq	%ecx, %rcx
	movzbl	(%rax,%rcx), %esi
	addb	(%rbx,%rcx), %sil
	movb	%sil, (%rdi,%rcx)
	leal	2(%rdx), %ecx
	cmpl	%ecx, %r15d
	jle	.L1599
	movslq	%ecx, %rcx
	movzbl	(%rbx,%rcx), %esi
	addb	(%rax,%rcx), %sil
	movb	%sil, (%rdi,%rcx)
	leal	3(%rdx), %ecx
	cmpl	%r15d, %ecx
	jge	.L1599
	movslq	%ecx, %rcx
	movzbl	(%rax,%rcx), %esi
	addb	(%rbx,%rcx), %sil
	movb	%sil, (%rdi,%rcx)
	leal	4(%rdx), %ecx
	cmpl	%r15d, %ecx
	jge	.L1599
	movslq	%ecx, %rcx
	movzbl	(%rax,%rcx), %esi
	addb	(%rbx,%rcx), %sil
	movb	%sil, (%rdi,%rcx)
	leal	5(%rdx), %ecx
	cmpl	%r15d, %ecx
	jge	.L1599
	movslq	%ecx, %rcx
	addl	$6, %edx
	movzbl	(%rbx,%rcx), %esi
	addb	(%rax,%rcx), %sil
	movb	%sil, (%rdi,%rcx)
	cmpl	%edx, %r15d
	jle	.L1599
	movslq	%edx, %rdx
	movzbl	(%rax,%rdx), %eax
	addb	(%rbx,%rdx), %al
	movb	%al, (%rdi,%rdx)
	jmp	.L1599
.L1606:
	testl	%r15d, %r15d
	jle	.L1599
	leal	-1(%r15), %ecx
	movl	%r15d, %edx
	cmpl	$6, %ecx
	jbe	.L1815
	movl	8(%rsp), %eax
	negl	%eax
	cltq
	movq	%rax, %rsi
	notq	%rsi
	cmpq	$14, %rsi
	jbe	.L1815
	movq	96(%rsp), %rbx
	movq	%rdi, %rsi
	leaq	1(%rbx), %r8
	subq	%r8, %rsi
	cmpq	$14, %rsi
	jbe	.L1815
	cmpl	$14, %ecx
	jbe	.L1816
	movl	%r15d, %ecx
	addq	%rdi, %rax
	xorl	%edx, %edx
	movq	%rbx, %rsi
	shrl	$4, %ecx
	salq	$4, %rcx
	.p2align 4,,10
	.p2align 3
.L1617:
	movdqu	(%rsi,%rdx), %xmm0
	movdqu	(%rax,%rdx), %xmm5
	paddb	%xmm5, %xmm0
	movups	%xmm0, (%rdi,%rdx)
	addq	$16, %rdx
	cmpq	%rdx, %rcx
	jne	.L1617
	movl	%r15d, %r8d
	andl	$-16, %r8d
	movl	%r8d, %ecx
	cmpl	%r8d, %r15d
	je	.L1599
	movl	%r15d, %edx
	subl	%r8d, %edx
	leal	-1(%rdx), %esi
	cmpl	$6, %esi
	jbe	.L1620
.L1616:
	movq	(%rax,%rcx), %xmm0
	movq	96(%rsp), %rax
	movq	(%rax,%rcx), %xmm1
	movl	%edx, %eax
	andl	$-8, %eax
	paddb	%xmm1, %xmm0
	addl	%eax, %r8d
	andl	$7, %edx
	movq	%xmm0, (%rdi,%rcx)
	je	.L1599
.L1620:
	movl	8(%rsp), %ebx
	movl	%r8d, %eax
	movq	96(%rsp), %rsi
	movslq	%r8d, %rdx
	subl	%ebx, %eax
	movzbl	(%rsi,%rdx), %ecx
	cltq
	addb	(%rdi,%rax), %cl
	leal	1(%r8), %eax
	movb	%cl, (%rdi,%rdx)
	cmpl	%r15d, %eax
	jge	.L1599
	movslq	%eax, %rdx
	subl	%ebx, %eax
	cltq
	movzbl	(%rsi,%rdx), %ecx
	addb	(%rdi,%rax), %cl
	leal	2(%r8), %eax
	movb	%cl, (%rdi,%rdx)
	cmpl	%r15d, %eax
	jge	.L1599
	movslq	%eax, %rdx
	subl	%ebx, %eax
	cltq
	movzbl	(%rsi,%rdx), %ecx
	addb	(%rdi,%rax), %cl
	leal	3(%r8), %eax
	movb	%cl, (%rdi,%rdx)
	cmpl	%r15d, %eax
	jge	.L1599
	movslq	%eax, %rdx
	subl	%ebx, %eax
	cltq
	movzbl	(%rsi,%rdx), %ecx
	addb	(%rdi,%rax), %cl
	leal	4(%r8), %eax
	movb	%cl, (%rdi,%rdx)
	cmpl	%r15d, %eax
	jl	.L2118
	jmp	.L1599
	.p2align 4,,10
	.p2align 3
.L1607:
	movq	96(%rsp), %rsi
	movq	%r13, %rdx
	call	memcpy@PLT
	.p2align 4,,10
	.p2align 3
.L1599:
	addq	%r13, 96(%rsp)
.L1663:
	movl	108(%rsp), %eax
	movl	176(%rsp), %edi
	addl	%edi, 144(%rsp)
	addl	$1, %eax
	cmpl	%eax, 192(%rsp)
	je	.L1754
	movq	184(%rsp), %rdi
	movl	%eax, 108(%rsp)
	movq	24(%rdi), %rdi
	jmp	.L1755
.L1600:
	testl	%r15d, %r15d
	jle	.L1599
	leal	-1(%r15), %ecx
	movl	%r15d, %edx
	cmpl	$6, %ecx
	jbe	.L1829
	movl	8(%rsp), %eax
	negl	%eax
	cltq
	movq	%rax, %rsi
	notq	%rsi
	cmpq	$14, %rsi
	jbe	.L1829
	movq	96(%rsp), %rbx
	movq	%rdi, %rsi
	leaq	1(%rbx), %r8
	subq	%r8, %rsi
	cmpq	$14, %rsi
	jbe	.L1829
	cmpl	$14, %ecx
	jbe	.L1830
	movl	%r15d, %ecx
	addq	%rdi, %rax
	xorl	%edx, %edx
	movq	%rbx, %rsi
	shrl	$4, %ecx
	salq	$4, %rcx
	.p2align 4,,10
	.p2align 3
.L1656:
	movdqu	(%rsi,%rdx), %xmm0
	movdqu	(%rax,%rdx), %xmm5
	paddb	%xmm5, %xmm0
	movups	%xmm0, (%rdi,%rdx)
	addq	$16, %rdx
	cmpq	%rcx, %rdx
	jne	.L1656
	movl	%r15d, %r8d
	andl	$-16, %r8d
	movl	%r8d, %ecx
	cmpl	%r8d, %r15d
	je	.L1599
	movl	%r15d, %edx
	subl	%r8d, %edx
	leal	-1(%rdx), %esi
	cmpl	$6, %esi
	jbe	.L1659
.L1655:
	movq	(%rax,%rcx), %xmm0
	movq	96(%rsp), %rax
	movq	(%rax,%rcx), %xmm1
	movl	%edx, %eax
	andl	$-8, %eax
	paddb	%xmm1, %xmm0
	addl	%eax, %r8d
	andl	$7, %edx
	movq	%xmm0, (%rdi,%rcx)
	je	.L1599
.L1659:
	movl	8(%rsp), %ebx
	movl	%r8d, %eax
	movq	96(%rsp), %rsi
	movslq	%r8d, %rdx
	subl	%ebx, %eax
	movzbl	(%rsi,%rdx), %ecx
	cltq
	addb	(%rdi,%rax), %cl
	leal	1(%r8), %eax
	movb	%cl, (%rdi,%rdx)
	cmpl	%eax, %r15d
	jle	.L1599
	movslq	%eax, %rdx
	subl	%ebx, %eax
	cltq
	movzbl	(%rsi,%rdx), %ecx
	addb	(%rdi,%rax), %cl
	leal	2(%r8), %eax
	movb	%cl, (%rdi,%rdx)
	cmpl	%eax, %r15d
	jle	.L1599
	movslq	%eax, %rdx
	subl	%ebx, %eax
	cltq
	movzbl	(%rsi,%rdx), %ecx
	addb	(%rdi,%rax), %cl
	leal	3(%r8), %eax
	movb	%cl, (%rdi,%rdx)
	cmpl	%eax, %r15d
	jle	.L1599
	movslq	%eax, %rdx
	subl	%ebx, %eax
	cltq
	movzbl	(%rsi,%rdx), %ecx
	addb	(%rdi,%rax), %cl
	leal	4(%r8), %eax
	movb	%cl, (%rdi,%rdx)
	cmpl	%eax, %r15d
	jle	.L1599
.L2118:
	movslq	%eax, %rdx
	subl	%ebx, %eax
	cltq
	movzbl	(%rsi,%rdx), %ecx
	addb	(%rdi,%rax), %cl
	leal	5(%r8), %eax
	movb	%cl, (%rdi,%rdx)
	cmpl	%eax, %r15d
	jle	.L1599
	movslq	%eax, %rdx
	subl	%ebx, %eax
	cltq
	movzbl	(%rsi,%rdx), %ecx
	addb	(%rdi,%rax), %cl
	leal	6(%r8), %eax
	movb	%cl, (%rdi,%rdx)
	cmpl	%eax, %r15d
	jle	.L1599
	movslq	%eax, %rdx
	subl	%ebx, %eax
	cltq
	movzbl	(%rsi,%rdx), %ecx
	addb	(%rdi,%rax), %cl
	movb	%cl, (%rdi,%rdx)
	jmp	.L1599
.L1827:
	movl	8(%rsp), %ecx
	movq	96(%rsp), %rsi
	xorl	%eax, %eax
	negl	%ecx
	movslq	%ecx, %rcx
	addq	%rdi, %rcx
	.p2align 4,,10
	.p2align 3
.L1652:
	movzbl	(%rcx,%rax), %edx
	shrb	%dl
	addb	(%rsi,%rax), %dl
	movb	%dl, (%rdi,%rax)
	addq	$1, %rax
	cmpq	%rax, %r13
	jne	.L1652
	jmp	.L1599
.L1821:
	movl	8(%rsp), %r8d
	movq	96(%rsp), %r9
	xorl	%ecx, %ecx
	negl	%r8d
	movslq	%r8d, %r8
	addq	%rdi, %r8
	.p2align 4,,10
	.p2align 3
.L1637:
	movzbl	(%r8,%rcx), %edx
	movzbl	(%rax,%rcx), %esi
	addl	%esi, %edx
	sarl	%edx
	addb	(%r9,%rcx), %dl
	movb	%dl, (%rdi,%rcx)
	addq	$1, %rcx
	cmpq	%r13, %rcx
	jne	.L1637
	jmp	.L1599
.L1818:
	movq	96(%rsp), %rsi
	xorl	%edx, %edx
	.p2align 4,,10
	.p2align 3
.L1631:
	movzbl	(%rax,%rdx), %ecx
	addb	(%rsi,%rdx), %cl
	movb	%cl, (%rdi,%rdx)
	addq	$1, %rdx
	cmpq	%rdx, %r13
	jne	.L1631
	jmp	.L1599
.L1815:
	movl	8(%rsp), %ecx
	movq	96(%rsp), %rsi
	xorl	%eax, %eax
	negl	%ecx
	movslq	%ecx, %rcx
	addq	%rdi, %rcx
	.p2align 4,,10
	.p2align 3
.L1622:
	movzbl	(%rsi,%rax), %edx
	addb	(%rcx,%rax), %dl
	movb	%dl, (%rdi,%rax)
	addq	$1, %rax
	cmpq	%rax, %r13
	jne	.L1622
	jmp	.L1599
.L1823:
	movl	8(%rsp), %r12d
	movl	%r14d, 32(%rsp)
	xorl	%ecx, %ecx
	negl	%r12d
	movslq	%r12d, %r12
	leaq	(%rdi,%r12), %rbx
	leaq	(%rax,%r12), %r15
	movq	%rbx, 16(%rsp)
	.p2align 4,,10
	.p2align 3
.L1647:
	movq	16(%rsp), %rsi
	movzbl	(%rax,%rcx), %r8d
	movzbl	(%r15,%rcx), %r9d
	movq	96(%rsp), %rbx
	movzbl	(%rsi,%rcx), %r10d
	movzbl	(%rbx,%rcx), %r12d
	movl	%r8d, %ebx
	movl	%r9d, %r11d
	leal	(%r10,%r8), %edx
	movl	%r10d, %esi
	subl	%r9d, %edx
	movl	%edx, %r14d
	subl	%r8d, %r14d
	movl	%r14d, %r8d
	negl	%r8d
	cmovs	%r14d, %r8d
	movl	%edx, %r14d
	subl	%r9d, %r14d
	movl	%r14d, %r9d
	negl	%r9d
	cmovs	%r14d, %r9d
	movl	%r8d, %r14d
	cmpl	%r8d, %r9d
	cmovle	%r9d, %r14d
	subl	%r10d, %edx
	movl	%edx, %r10d
	negl	%r10d
	cmovs	%edx, %r10d
	cmpl	%r10d, %r14d
	jge	.L1646
	cmpl	%r8d, %r9d
	movl	%r11d, %esi
	cmovge	%ebx, %esi
.L1646:
	addl	%r12d, %esi
	movb	%sil, (%rdi,%rcx)
	addq	$1, %rcx
	cmpq	%rcx, %r13
	jne	.L1647
	movl	32(%rsp), %r14d
	jmp	.L1599
.L1829:
	movl	8(%rsp), %ecx
	movq	96(%rsp), %rsi
	xorl	%eax, %eax
	negl	%ecx
	movslq	%ecx, %rcx
	addq	%rdi, %rcx
	.p2align 4,,10
	.p2align 3
.L1661:
	movzbl	(%rsi,%rax), %edx
	addb	(%rcx,%rax), %dl
	movb	%dl, (%rdi,%rax)
	addq	$1, %rax
	cmpq	%rax, %r13
	jne	.L1661
	jmp	.L1599
	.p2align 4,,10
	.p2align 3
.L1579:
	movl	176(%rsp), %ecx
	movl	108(%rsp), %r12d
	movq	%rdi, %rax
	subq	%rcx, %rax
	testl	%r12d, %r12d
	jne	.L1581
	leaq	first_row_filter(%rip), %rbx
	movzbl	(%rbx,%rdx), %edx
.L1581:
	movl	8(%rsp), %ebx
	testl	%ebx, %ebx
	jg	.L1580
	cmpl	$8, 544(%rsp)
	jne	.L1593
	.p2align 4,,10
	.p2align 3
.L2124:
	movslq	240(%rsp), %rcx
	cmpl	%ecx, 180(%rsp)
	je	.L1594
	movb	$-1, (%rdi,%rcx)
.L1594:
	leaq	(%r11,%rcx), %rbx
	movslq	180(%rsp), %rcx
	movq	%rbx, 96(%rsp)
	addq	%rcx, %rdi
	addq	%rcx, %rax
	cmpb	$0, 208(%rsp)
	jne	.L2126
.L1598:
	movl	180(%rsp), %esi
	cmpl	%esi, 252(%rsp)
	jne	.L2127
	cmpl	$6, %edx
	ja	.L1665
	leaq	.L1667(%rip), %rsi
	movl	%edx, %ecx
	movslq	(%rsi,%rcx,4), %rcx
	addq	%rsi, %rcx
	jmp	*%rcx
	.section	.rodata
	.align 4
	.align 4
.L1667:
	.long	.L1673-.L1667
	.long	.L1672-.L1667
	.long	.L1671-.L1667
	.long	.L1670-.L1667
	.long	.L1669-.L1667
	.long	.L1668-.L1667
	.long	.L1666-.L1667
	.text
.L1668:
	movl	160(%rsp), %eax
	subl	$1, %eax
	movl	%eax, 232(%rsp)
	movl	%eax, %r9d
	je	.L1674
	movslq	8(%rsp), %r8
	movl	%r14d, %eax
	movslq	%r14d, %r12
	negl	%eax
	movl	%r8d, %r11d
	movslq	%eax, %rdx
	leal	-1(%r8), %r13d
	movl	%r8d, %r10d
	andl	$-16, %r11d
	addq	%rdx, %rdi
	notq	%rdx
	shrl	$4, %r10d
	movl	%r11d, %eax
	salq	$4, %r10
	movslq	%r11d, %rbx
	subl	%r14d, %eax
	cltq
	movq	%rax, 64(%rsp)
	leal	1(%r11), %eax
	movslq	%eax, %rcx
	movl	%eax, 48(%rsp)
	subl	%r14d, %eax
	cltq
	movq	%rcx, 112(%rsp)
	movq	%rax, 128(%rsp)
	leal	2(%r11), %eax
	movslq	%eax, %rcx
	movl	%eax, 80(%rsp)
	subl	%r14d, %eax
	cltq
	movq	%rcx, 224(%rsp)
	movq	%rax, 256(%rsp)
	leal	3(%r11), %eax
	movslq	%eax, %rcx
	movl	%eax, 216(%rsp)
	subl	%r14d, %eax
	cltq
	movq	%rcx, 272(%rsp)
	movq	%rax, 280(%rsp)
	leal	4(%r11), %eax
	movslq	%eax, %rcx
	movl	%eax, 264(%rsp)
	subl	%r14d, %eax
	cltq
	movq	%rcx, 296(%rsp)
	movq	%rax, 304(%rsp)
	leal	5(%r11), %eax
	movslq	%eax, %rcx
	movl	%eax, 288(%rsp)
	subl	%r14d, %eax
	cltq
	movq	%rcx, 320(%rsp)
	movq	%rax, 328(%rsp)
	leal	6(%r11), %eax
	movslq	%eax, %rcx
	movl	%eax, 312(%rsp)
	subl	%r14d, %eax
	cltq
	movq	%rcx, 344(%rsp)
	movq	%rax, 352(%rsp)
	leal	7(%r11), %eax
	movslq	%eax, %rcx
	movl	%eax, 336(%rsp)
	subl	%r14d, %eax
	cltq
	movq	%rcx, 368(%rsp)
	movq	%rax, 376(%rsp)
	leal	8(%r11), %eax
	movslq	%eax, %rcx
	movl	%eax, 360(%rsp)
	subl	%r14d, %eax
	cltq
	movq	%rcx, 392(%rsp)
	movq	%rax, 400(%rsp)
	leal	9(%r11), %eax
	movslq	%eax, %rcx
	movl	%eax, 384(%rsp)
	subl	%r14d, %eax
	cltq
	movq	%rcx, 416(%rsp)
	movq	%rax, 424(%rsp)
	leal	10(%r11), %eax
	movslq	%eax, %rcx
	movl	%eax, 408(%rsp)
	subl	%r14d, %eax
	cltq
	movq	%rcx, 432(%rsp)
	movq	%rax, 440(%rsp)
	leal	11(%r11), %eax
	movl	%eax, 448(%rsp)
	movq	96(%rsp), %rcx
	movq	%rdx, 16(%rsp)
	movdqa	.LC15(%rip), %xmm1
	movq	%r15, 456(%rsp)
	movl	%r8d, %r15d
	.p2align 4,,10
	.p2align 3
.L1732:
	movq	%rdi, %rsi
	addq	%r12, %rdi
	testl	%r15d, %r15d
	jle	.L1739
	cmpl	$14, %r13d
	jbe	.L1850
	cmpq	$14, 16(%rsp)
	jbe	.L1850
	leaq	1(%rcx), %rdx
	movq	%rdi, %rax
	subq	%rdx, %rax
	cmpq	$14, %rax
	jbe	.L1850
	addq	$0, %rsi
	xorl	%eax, %eax
	.p2align 4,,10
	.p2align 3
.L1734:
	movdqu	(%rsi,%rax), %xmm0
	movdqu	(%rcx,%rax), %xmm5
	psrlw	$1, %xmm0
	pand	%xmm1, %xmm0
	paddb	%xmm5, %xmm0
	movups	%xmm0, (%rdi,%rax)
	addq	$16, %rax
	cmpq	%r10, %rax
	jne	.L1734
	cmpl	%r11d, %r15d
	je	.L1739
	movq	64(%rsp), %rax
	movzbl	(%rdi,%rax), %eax
	movb	%al, 32(%rsp)
	shrb	%al
	addb	(%rcx,%rbx), %al
	movb	%al, (%rdi,%rbx)
	movl	48(%rsp), %eax
	cmpl	%eax, %r15d
	jle	.L1739
	movq	128(%rsp), %rax
	movq	112(%rsp), %rsi
	movzbl	(%rdi,%rax), %eax
	movb	%al, 32(%rsp)
	shrb	%al
	addb	(%rcx,%rsi), %al
	movb	%al, (%rdi,%rsi)
	movl	80(%rsp), %eax
	cmpl	%eax, %r15d
	jle	.L1739
	movq	256(%rsp), %rax
	movq	224(%rsp), %rsi
	movzbl	(%rdi,%rax), %eax
	movb	%al, 32(%rsp)
	shrb	%al
	addb	(%rcx,%rsi), %al
	movb	%al, (%rdi,%rsi)
	movl	216(%rsp), %eax
	cmpl	%eax, %r15d
	jle	.L1739
	movq	280(%rsp), %rax
	movq	272(%rsp), %rsi
	movzbl	(%rdi,%rax), %eax
	movb	%al, 32(%rsp)
	shrb	%al
	addb	(%rcx,%rsi), %al
	movb	%al, (%rdi,%rsi)
	movl	264(%rsp), %eax
	cmpl	%eax, %r15d
	jle	.L1739
	movq	304(%rsp), %rax
	movq	296(%rsp), %rsi
	movzbl	(%rdi,%rax), %eax
	movb	%al, 32(%rsp)
	shrb	%al
	addb	(%rcx,%rsi), %al
	movb	%al, (%rdi,%rsi)
	movl	288(%rsp), %eax
	cmpl	%eax, %r15d
	jle	.L1739
	movq	328(%rsp), %rax
	movq	320(%rsp), %rsi
	movzbl	(%rdi,%rax), %eax
	movb	%al, 32(%rsp)
	shrb	%al
	addb	(%rcx,%rsi), %al
	movb	%al, (%rdi,%rsi)
	movl	312(%rsp), %eax
	cmpl	%eax, %r15d
	jle	.L1739
	movq	352(%rsp), %rax
	movq	344(%rsp), %rsi
	movzbl	(%rdi,%rax), %eax
	movb	%al, 32(%rsp)
	shrb	%al
	addb	(%rcx,%rsi), %al
	movb	%al, (%rdi,%rsi)
	movl	336(%rsp), %eax
	cmpl	%eax, %r15d
	jle	.L1739
	movq	376(%rsp), %rax
	movq	368(%rsp), %rsi
	movzbl	(%rdi,%rax), %eax
	movb	%al, 32(%rsp)
	shrb	%al
	addb	(%rcx,%rsi), %al
	movb	%al, (%rdi,%rsi)
	movl	360(%rsp), %eax
	cmpl	%eax, %r15d
	jle	.L1739
	movq	400(%rsp), %rax
	movq	392(%rsp), %rsi
	movzbl	(%rdi,%rax), %eax
	movb	%al, 32(%rsp)
	shrb	%al
	addb	(%rcx,%rsi), %al
	movb	%al, (%rdi,%rsi)
	movl	384(%rsp), %eax
	cmpl	%eax, %r15d
	jle	.L1739
	movq	424(%rsp), %rax
	movq	416(%rsp), %rsi
	movzbl	(%rdi,%rax), %eax
	movb	%al, 32(%rsp)
	shrb	%al
	addb	(%rcx,%rsi), %al
	movb	%al, (%rdi,%rsi)
	movl	408(%rsp), %eax
	cmpl	%eax, %r15d
	jle	.L1739
	movq	440(%rsp), %rax
	movq	432(%rsp), %rsi
	movzbl	(%rdi,%rax), %eax
	movb	%al, 32(%rsp)
	shrb	%al
	addb	(%rcx,%rsi), %al
	movb	%al, (%rdi,%rsi)
	movl	448(%rsp), %eax
	cmpl	%eax, %r15d
	jle	.L1739
	movslq	%eax, %rdx
	subl	%r14d, %eax
	cltq
	movzbl	(%rdi,%rax), %eax
	shrb	%al
	addb	(%rcx,%rdx), %al
	movb	%al, (%rdi,%rdx)
	leal	12(%r11), %eax
	cmpl	%eax, %r15d
	jle	.L1739
	movslq	%eax, %rdx
	subl	%r14d, %eax
	cltq
	movzbl	(%rdi,%rax), %eax
	shrb	%al
	addb	(%rcx,%rdx), %al
	movb	%al, (%rdi,%rdx)
	leal	13(%r11), %eax
	cmpl	%eax, %r15d
	jle	.L1739
	movslq	%eax, %rdx
	subl	%r14d, %eax
	cltq
	movzbl	(%rdi,%rax), %eax
	shrb	%al
	addb	(%rcx,%rdx), %al
	movb	%al, (%rdi,%rdx)
	leal	14(%r11), %eax
	cmpl	%eax, %r15d
	jle	.L1739
	movslq	%eax, %rdx
	subl	%r14d, %eax
	cltq
	movzbl	(%rdi,%rax), %eax
	shrb	%al
	addb	(%rcx,%rdx), %al
	movb	%al, (%rdi,%rdx)
	.p2align 4,,10
	.p2align 3
.L1739:
	movb	$-1, (%rdi,%r8)
	addq	%r8, %rcx
	subl	$1, %r9d
	jne	.L1732
	movl	232(%rsp), %eax
	movq	456(%rsp), %r15
	imulq	%r8, %rax
	addq	%rax, 96(%rsp)
	cmpl	$16, 544(%rsp)
	jne	.L1663
.L2128:
	movq	184(%rsp), %rax
	movl	160(%rsp), %r9d
	addq	24(%rax), %r15
	testl	%r9d, %r9d
	je	.L1663
.L1752:
	movslq	8(%rsp), %rax
	movl	160(%rsp), %esi
	movslq	%r14d, %rdx
	leaq	1(%r15,%rax), %rcx
	xorl	%eax, %eax
	.p2align 4,,10
	.p2align 3
.L1753:
	addl	$1, %eax
	movb	$-1, (%rcx)
	addq	%rdx, %rcx
	cmpl	%esi, %eax
	jb	.L1753
	jmp	.L1663
.L1669:
	movl	160(%rsp), %ebx
	subl	$1, %ebx
	movl	%ebx, 232(%rsp)
	movl	%ebx, %r12d
	je	.L1674
	movslq	8(%rsp), %rbx
	movl	%r14d, %edx
	movslq	%r14d, %r8
	movq	96(%rsp), %r13
	negl	%edx
	pxor	%xmm14, %xmm14
	pxor	%xmm13, %xmm13
	movq	%r15, 304(%rsp)
	movq	%rbx, %rsi
	movq	%rbx, 112(%rsp)
	movslq	%edx, %rbx
	leal	-1(%rsi), %ecx
	leaq	(%rax,%rbx), %r9
	movq	%rbx, 280(%rsp)
	movl	%ecx, 256(%rsp)
	movl	%esi, %ecx
	andl	$-16, %esi
	leaq	(%rdi,%rbx), %r10
	movl	%esi, 264(%rsp)
	shrl	$4, %ecx
	movslq	%esi, %rsi
	movq	%r9, %rdx
	salq	$4, %rcx
	movq	%rsi, 296(%rsp)
	movq	%rbx, %rsi
	movq	%rcx, %r11
	notq	%rsi
	movq	%r8, %rcx
	movq	%r9, 128(%rsp)
	movq	%r10, 224(%rsp)
	movq	%r10, 64(%rsp)
	movq	%r9, 216(%rsp)
	movq	%rsi, 272(%rsp)
	movl	%r14d, 312(%rsp)
	movq	%r11, 288(%rsp)
	.p2align 4,,10
	.p2align 3
.L1720:
	movl	8(%rsp), %r10d
	testl	%r10d, %r10d
	jle	.L1729
	cmpl	$14, 256(%rsp)
	jbe	.L1846
	leaq	1(%rdx), %r8
	movq	%rdi, %rsi
	leaq	1(%rax), %r9
	subq	%r8, %rsi
	cmpq	$14, %rsi
	seta	%sil
	cmpq	$14, 272(%rsp)
	seta	%r8b
	andl	%r8d, %esi
	movq	%rdi, %r8
	subq	%r9, %r8
	cmpq	$14, %r8
	seta	%r8b
	testb	%r8b, %sil
	je	.L1846
	leaq	1(%r13), %r8
	movq	%rdi, %rsi
	subq	%r8, %rsi
	cmpq	$14, %rsi
	jbe	.L1846
	movq	280(%rsp), %rbx
	movq	288(%rsp), %r10
	xorl	%esi, %esi
	leaq	(%rdi,%rbx), %r8
.L1722:
	movdqu	(%rdx,%rsi), %xmm0
	pxor	%xmm7, %xmm7
	movdqu	(%rdx,%rsi), %xmm1
	movdqu	(%rax,%rsi), %xmm4
	movdqa	%xmm7, %xmm6
	punpckhbw	%xmm7, %xmm0
	punpcklbw	%xmm7, %xmm1
	movdqa	%xmm6, %xmm3
	movdqa	%xmm0, %xmm5
	punpckhbw	%xmm7, %xmm4
	movdqa	%xmm1, %xmm9
	punpckhwd	%xmm14, %xmm5
	punpcklwd	%xmm14, %xmm9
	movdqa	%xmm0, %xmm8
	movaps	%xmm5, 48(%rsp)
	movdqu	(%rax,%rsi), %xmm5
	punpcklwd	%xmm14, %xmm8
	punpckhwd	%xmm14, %xmm1
	movaps	%xmm8, 32(%rsp)
	movdqa	%xmm4, %xmm10
	punpckhwd	%xmm14, %xmm4
	punpcklbw	%xmm7, %xmm5
	movdqu	(%r8,%rsi), %xmm7
	movaps	%xmm1, 16(%rsp)
	punpcklwd	%xmm14, %xmm10
	movdqa	%xmm5, %xmm11
	punpckhwd	%xmm14, %xmm5
	punpcklbw	%xmm6, %xmm7
	movdqu	(%r8,%rsi), %xmm6
	punpcklwd	%xmm14, %xmm11
	movdqa	%xmm7, %xmm15
	punpckhwd	%xmm14, %xmm7
	punpcklwd	%xmm14, %xmm15
	punpckhbw	%xmm3, %xmm6
	movdqa	%xmm7, %xmm2
	movdqa	%xmm15, %xmm3
	paddd	%xmm5, %xmm2
	psubd	16(%rsp), %xmm2
	paddd	%xmm11, %xmm3
	movdqa	%xmm6, %xmm12
	punpckhwd	%xmm14, %xmm6
	psubd	%xmm9, %xmm3
	punpcklwd	%xmm14, %xmm12
	movdqa	%xmm6, %xmm0
	movdqa	%xmm3, %xmm8
	movdqa	%xmm12, %xmm1
	paddd	%xmm4, %xmm0
	psubd	%xmm15, %xmm8
	paddd	%xmm10, %xmm1
	movdqa	%xmm8, %xmm15
	psubd	32(%rsp), %xmm1
	psubd	48(%rsp), %xmm0
	psrad	$31, %xmm15
	pxor	%xmm15, %xmm8
	psubd	%xmm15, %xmm8
	movdqa	%xmm2, %xmm15
	psubd	%xmm7, %xmm15
	movaps	%xmm8, 80(%rsp)
	movdqa	%xmm15, %xmm7
	movdqa	%xmm15, %xmm8
	psrad	$31, %xmm7
	pxor	%xmm7, %xmm8
	movdqa	%xmm8, %xmm15
	psubd	%xmm7, %xmm15
	movdqa	%xmm1, %xmm7
	psubd	%xmm12, %xmm7
	movdqa	%xmm7, %xmm12
	psrad	$31, %xmm12
	pxor	%xmm12, %xmm7
	psubd	%xmm12, %xmm7
	movdqa	%xmm7, %xmm12
	movdqa	%xmm0, %xmm7
	psubd	%xmm6, %xmm7
	movdqa	%xmm7, %xmm6
	psrad	$31, %xmm6
	pxor	%xmm6, %xmm7
	psubd	%xmm6, %xmm7
	movdqa	%xmm3, %xmm6
	psubd	%xmm9, %xmm3
	psubd	%xmm11, %xmm6
	movdqa	%xmm6, %xmm11
	psrad	$31, %xmm11
	pxor	%xmm11, %xmm6
	psubd	%xmm11, %xmm6
	movdqa	%xmm2, %xmm11
	psubd	16(%rsp), %xmm2
	psubd	%xmm5, %xmm11
	movdqa	%xmm11, %xmm5
	movdqa	%xmm11, %xmm8
	psrad	$31, %xmm5
	pxor	%xmm5, %xmm8
	psubd	%xmm5, %xmm8
	movdqa	%xmm1, %xmm5
	psubd	32(%rsp), %xmm1
	psubd	%xmm10, %xmm5
	movdqa	%xmm5, %xmm10
	psrad	$31, %xmm10
	pxor	%xmm10, %xmm5
	psubd	%xmm10, %xmm5
	movdqa	%xmm0, %xmm10
	psubd	48(%rsp), %xmm0
	psubd	%xmm4, %xmm10
	movdqa	%xmm10, %xmm4
	psrad	$31, %xmm4
	pxor	%xmm4, %xmm10
	psubd	%xmm4, %xmm10
	movdqa	%xmm3, %xmm4
	psrad	$31, %xmm4
	pxor	%xmm4, %xmm3
	psubd	%xmm4, %xmm3
	movdqa	%xmm2, %xmm4
	psrad	$31, %xmm4
	pxor	%xmm4, %xmm2
	psubd	%xmm4, %xmm2
	movdqa	%xmm1, %xmm4
	psrad	$31, %xmm4
	pxor	%xmm4, %xmm1
	psubd	%xmm4, %xmm1
	movdqa	%xmm0, %xmm4
	psrad	$31, %xmm4
	pxor	%xmm4, %xmm0
	psubd	%xmm4, %xmm0
	movdqa	%xmm6, %xmm4
	pcmpgtd	%xmm3, %xmm4
	movdqa	%xmm4, %xmm9
	pand	%xmm4, %xmm3
	pandn	%xmm6, %xmm9
	por	%xmm9, %xmm3
	movdqa	%xmm8, %xmm9
	pcmpgtd	%xmm2, %xmm9
	movdqa	%xmm9, %xmm6
	pand	%xmm9, %xmm2
	pandn	%xmm8, %xmm6
	por	%xmm6, %xmm2
	movdqa	%xmm5, %xmm6
	pcmpgtd	%xmm1, %xmm6
	movdqa	%xmm6, %xmm11
	pand	%xmm6, %xmm1
	pandn	%xmm5, %xmm11
	movdqa	%xmm10, %xmm5
	pcmpgtd	%xmm0, %xmm5
	por	%xmm11, %xmm1
	movdqa	%xmm5, %xmm11
	pand	%xmm5, %xmm0
	pandn	%xmm10, %xmm11
	movdqa	%xmm5, %xmm10
	movdqa	%xmm11, %xmm8
	pcmpeqd	%xmm13, %xmm10
	movdqa	%xmm9, %xmm11
	por	%xmm0, %xmm8
	movdqa	80(%rsp), %xmm0
	pcmpeqd	%xmm13, %xmm11
	pcmpgtd	%xmm8, %xmm7
	movdqa	%xmm6, %xmm8
	pcmpgtd	%xmm3, %xmm0
	pcmpeqd	%xmm13, %xmm8
	movdqa	%xmm15, %xmm3
	pcmpgtd	%xmm2, %xmm3
	movdqa	%xmm12, %xmm2
	pcmpgtd	%xmm1, %xmm2
	movdqa	%xmm4, %xmm1
	pand	%xmm7, %xmm10
	pcmpeqd	%xmm13, %xmm1
	pand	%xmm0, %xmm4
	pand	%xmm7, %xmm5
	pand	%xmm3, %xmm11
	pcmpeqd	%xmm13, %xmm7
	pand	%xmm3, %xmm9
	pcmpeqd	%xmm13, %xmm3
	pand	%xmm2, %xmm8
	pand	%xmm2, %xmm6
	pand	%xmm0, %xmm1
	pcmpeqd	%xmm13, %xmm0
	pcmpeqd	%xmm13, %xmm2
	movdqa	%xmm0, %xmm12
	punpcklwd	%xmm3, %xmm0
	punpckhwd	%xmm3, %xmm12
	movdqa	%xmm0, %xmm3
	punpckhwd	%xmm12, %xmm3
	punpcklwd	%xmm12, %xmm0
	punpcklwd	%xmm3, %xmm0
	movdqa	%xmm2, %xmm3
	punpcklwd	%xmm7, %xmm2
	punpckhwd	%xmm7, %xmm3
	movdqa	%xmm2, %xmm7
	pand	.LC2(%rip), %xmm0
	punpckhwd	%xmm3, %xmm7
	punpcklwd	%xmm3, %xmm2
	movdqu	(%rdx,%rsi), %xmm3
	punpcklwd	%xmm7, %xmm2
	pand	.LC2(%rip), %xmm2
	packuswb	%xmm2, %xmm0
	movdqu	(%r8,%rsi), %xmm2
	pand	%xmm0, %xmm2
	pandn	%xmm3, %xmm0
	por	%xmm2, %xmm0
	movdqa	%xmm4, %xmm2
	punpcklwd	%xmm9, %xmm4
	punpckhwd	%xmm9, %xmm2
	movdqa	%xmm4, %xmm3
	punpckhwd	%xmm2, %xmm3
	punpcklwd	%xmm2, %xmm4
	movdqa	%xmm6, %xmm2
	punpcklwd	%xmm5, %xmm6
	punpckhwd	%xmm5, %xmm2
	punpcklwd	%xmm3, %xmm4
	movdqa	%xmm6, %xmm3
	punpcklwd	%xmm2, %xmm6
	pand	.LC2(%rip), %xmm4
	punpckhwd	%xmm2, %xmm3
	movdqu	(%rdx,%rsi), %xmm2
	punpcklwd	%xmm3, %xmm6
	pand	.LC2(%rip), %xmm6
	packuswb	%xmm6, %xmm4
	pand	%xmm4, %xmm2
	pandn	%xmm0, %xmm4
	movdqa	%xmm1, %xmm0
	punpcklwd	%xmm11, %xmm1
	punpckhwd	%xmm11, %xmm0
	por	%xmm2, %xmm4
	movdqa	%xmm1, %xmm2
	punpcklwd	%xmm0, %xmm1
	punpckhwd	%xmm0, %xmm2
	movdqa	%xmm8, %xmm0
	punpcklwd	%xmm10, %xmm8
	punpckhwd	%xmm10, %xmm0
	punpcklwd	%xmm2, %xmm1
	movdqa	%xmm8, %xmm2
	punpckhwd	%xmm0, %xmm2
	punpcklwd	%xmm0, %xmm8
	pand	.LC2(%rip), %xmm1
	movdqu	(%rax,%rsi), %xmm0
	punpcklwd	%xmm2, %xmm8
	pand	.LC2(%rip), %xmm8
	packuswb	%xmm8, %xmm1
	pand	%xmm1, %xmm0
	pandn	%xmm4, %xmm1
	por	%xmm0, %xmm1
	movdqu	0(%r13,%rsi), %xmm0
	paddb	%xmm1, %xmm0
	movups	%xmm0, (%rdi,%rsi)
	addq	$16, %rsi
	cmpq	%r10, %rsi
	jne	.L1722
	movl	264(%rsp), %esi
	cmpl	%esi, 8(%rsp)
	je	.L1729
	movq	%rdx, 16(%rsp)
	movq	296(%rsp), %rsi
	movl	%r12d, 32(%rsp)
	movq	216(%rsp), %r15
	movq	%rcx, 48(%rsp)
	.p2align 4,,10
	.p2align 3
.L1725:
	movq	64(%rsp), %rcx
	movzbl	(%rax,%rsi), %r9d
	movzbl	(%r15,%rsi), %r8d
	movzbl	0(%r13,%rsi), %r14d
	movzbl	(%rcx,%rsi), %r11d
	movl	%r9d, %r12d
	movl	%r8d, %ebx
	leal	(%r9,%r11), %edx
	movl	%r11d, %ecx
	subl	%r8d, %edx
	movl	%edx, %r10d
	subl	%r9d, %r10d
	movl	%r10d, %r9d
	negl	%r9d
	cmovs	%r10d, %r9d
	movl	%edx, %r10d
	subl	%r8d, %r10d
	movl	%r10d, %r8d
	negl	%r8d
	cmovs	%r10d, %r8d
	subl	%r11d, %edx
	movl	%edx, %r10d
	negl	%r10d
	cmovns	%r10d, %edx
	cmpl	%r8d, %r9d
	movl	%r8d, %r10d
	cmovle	%r9d, %r10d
	cmpl	%r10d, %edx
	jle	.L1726
	cmpl	%r8d, %r9d
	cmovle	%r12d, %ebx
	movl	%ebx, %ecx
.L1726:
	addl	%r14d, %ecx
	movb	%cl, (%rdi,%rsi)
	addq	$1, %rsi
	cmpl	%esi, 8(%rsp)
	jg	.L1725
.L2103:
	movq	16(%rsp), %rdx
	movl	32(%rsp), %r12d
	movq	48(%rsp), %rcx
.L1729:
	movq	112(%rsp), %rbx
	addq	%rcx, 64(%rsp)
	addq	%rcx, %rax
	addq	%rcx, %rdx
	addq	%rcx, 128(%rsp)
	movb	$-1, (%rdi,%rbx)
	addq	%rbx, %r13
	addq	%rcx, %rdi
	addq	%rcx, 224(%rsp)
	addq	%rcx, 216(%rsp)
	subl	$1, %r12d
	jne	.L1720
	movl	232(%rsp), %eax
	movq	304(%rsp), %r15
	movl	312(%rsp), %r14d
	imulq	%rbx, %rax
	addq	%rax, 96(%rsp)
	jmp	.L1665
.L1670:
	movl	160(%rsp), %ebx
	subl	$1, %ebx
	movl	%ebx, 232(%rsp)
	je	.L1674
	movslq	8(%rsp), %r10
	movl	%r14d, %edx
	movslq	%r14d, %r13
	negl	%edx
	movl	%r10d, %r11d
	movslq	%edx, %rcx
